
.build/release/Game7Systems:     file format elf64-x86-64


Disassembly of section .init:

000000000000a8c0 <_init>:
    a8c0:	f3 0f 1e fa          	endbr64
    a8c4:	48 83 ec 08          	sub    $0x8,%rsp
    a8c8:	48 8b 05 09 66 03 00 	mov    0x36609(%rip),%rax        # 40ed8 <__gmon_start__>
    a8cf:	48 85 c0             	test   %rax,%rax
    a8d2:	74 02                	je     a8d6 <_init+0x16>
    a8d4:	ff d0                	call   *%rax
    a8d6:	48 83 c4 08          	add    $0x8,%rsp
    a8da:	c3                   	ret

Disassembly of section .plt:

000000000000a8e0 <__cxa_finalize@plt-0x10>:
    a8e0:	ff 35 0a 67 03 00    	push   0x3670a(%rip)        # 40ff0 <_GLOBAL_OFFSET_TABLE_+0x8>
    a8e6:	ff 25 0c 67 03 00    	jmp    *0x3670c(%rip)        # 40ff8 <_GLOBAL_OFFSET_TABLE_+0x10>
    a8ec:	90                   	nop
    a8ed:	90                   	nop
    a8ee:	90                   	nop
    a8ef:	90                   	nop

000000000000a8f0 <__cxa_finalize@plt>:
    a8f0:	ff 25 0a 67 03 00    	jmp    *0x3670a(%rip)        # 41000 <__cxa_finalize@GLIBC_2.2.5>
    a8f6:	68 00 00 00 00       	push   $0x0
    a8fb:	e9 e0 ff ff ff       	jmp    a8e0 <_init+0x20>

000000000000a900 <swift_addNewDSOImage@plt>:
    a900:	ff 25 02 67 03 00    	jmp    *0x36702(%rip)        # 41008 <swift_addNewDSOImage>
    a906:	68 01 00 00 00       	push   $0x1
    a90b:	e9 d0 ff ff ff       	jmp    a8e0 <_init+0x20>

000000000000a910 <swift_slowDealloc@plt>:
    a910:	ff 25 fa 66 03 00    	jmp    *0x366fa(%rip)        # 41010 <swift_slowDealloc>
    a916:	68 02 00 00 00       	push   $0x2
    a91b:	e9 c0 ff ff ff       	jmp    a8e0 <_init+0x20>

000000000000a920 <swift_deallocClassInstance@plt>:
    a920:	ff 25 f2 66 03 00    	jmp    *0x366f2(%rip)        # 41018 <swift_deallocClassInstance>
    a926:	68 03 00 00 00       	push   $0x3
    a92b:	e9 b0 ff ff ff       	jmp    a8e0 <_init+0x20>

000000000000a930 <swift_initClassMetadata2@plt>:
    a930:	ff 25 ea 66 03 00    	jmp    *0x366ea(%rip)        # 41020 <swift_initClassMetadata2>
    a936:	68 04 00 00 00       	push   $0x4
    a93b:	e9 a0 ff ff ff       	jmp    a8e0 <_init+0x20>

000000000000a940 <swift_release@plt>:
    a940:	ff 25 e2 66 03 00    	jmp    *0x366e2(%rip)        # 41028 <swift_release>
    a946:	68 05 00 00 00       	push   $0x5
    a94b:	e9 90 ff ff ff       	jmp    a8e0 <_init+0x20>

000000000000a950 <swift_allocateGenericClassMetadata@plt>:
    a950:	ff 25 da 66 03 00    	jmp    *0x366da(%rip)        # 41030 <swift_allocateGenericClassMetadata>
    a956:	68 06 00 00 00       	push   $0x6
    a95b:	e9 80 ff ff ff       	jmp    a8e0 <_init+0x20>

000000000000a960 <swift_allocateGenericValueMetadata@plt>:
    a960:	ff 25 d2 66 03 00    	jmp    *0x366d2(%rip)        # 41038 <swift_allocateGenericValueMetadata>
    a966:	68 07 00 00 00       	push   $0x7
    a96b:	e9 70 ff ff ff       	jmp    a8e0 <_init+0x20>

000000000000a970 <swift_getGenericMetadata@plt>:
    a970:	ff 25 ca 66 03 00    	jmp    *0x366ca(%rip)        # 41040 <swift_getGenericMetadata>
    a976:	68 08 00 00 00       	push   $0x8
    a97b:	e9 60 ff ff ff       	jmp    a8e0 <_init+0x20>

000000000000a980 <swift_endAccess@plt>:
    a980:	ff 25 c2 66 03 00    	jmp    *0x366c2(%rip)        # 41048 <swift_endAccess>
    a986:	68 09 00 00 00       	push   $0x9
    a98b:	e9 50 ff ff ff       	jmp    a8e0 <_init+0x20>

000000000000a990 <$ss6HasherV5_seedABSi_tcfC@plt>:
    a990:	ff 25 ba 66 03 00    	jmp    *0x366ba(%rip)        # 41050 <$ss6HasherV5_seedABSi_tcfC>
    a996:	68 0a 00 00 00       	push   $0xa
    a99b:	e9 40 ff ff ff       	jmp    a8e0 <_init+0x20>

000000000000a9a0 <$ss6HasherV8_combineyySuF@plt>:
    a9a0:	ff 25 b2 66 03 00    	jmp    *0x366b2(%rip)        # 41058 <$ss6HasherV8_combineyySuF>
    a9a6:	68 0b 00 00 00       	push   $0xb
    a9ab:	e9 30 ff ff ff       	jmp    a8e0 <_init+0x20>

000000000000a9b0 <$ss6HasherV9_finalizeSiyF@plt>:
    a9b0:	ff 25 aa 66 03 00    	jmp    *0x366aa(%rip)        # 41060 <$ss6HasherV9_finalizeSiyF>
    a9b6:	68 0c 00 00 00       	push   $0xc
    a9bb:	e9 20 ff ff ff       	jmp    a8e0 <_init+0x20>

000000000000a9c0 <swift_getWitnessTable@plt>:
    a9c0:	ff 25 a2 66 03 00    	jmp    *0x366a2(%rip)        # 41068 <swift_getWitnessTable>
    a9c6:	68 0d 00 00 00       	push   $0xd
    a9cb:	e9 10 ff ff ff       	jmp    a8e0 <_init+0x20>

000000000000a9d0 <$ss5ErrorPsE7_domainSSvg@plt>:
    a9d0:	ff 25 9a 66 03 00    	jmp    *0x3669a(%rip)        # 41070 <$ss5ErrorPsE7_domainSSvg>
    a9d6:	68 0e 00 00 00       	push   $0xe
    a9db:	e9 00 ff ff ff       	jmp    a8e0 <_init+0x20>

000000000000a9e0 <$ss5ErrorPsE5_codeSivg@plt>:
    a9e0:	ff 25 92 66 03 00    	jmp    *0x36692(%rip)        # 41078 <$ss5ErrorPsE5_codeSivg>
    a9e6:	68 0f 00 00 00       	push   $0xf
    a9eb:	e9 f0 fe ff ff       	jmp    a8e0 <_init+0x20>

000000000000a9f0 <$ss5ErrorPsE9_userInfoyXlSgvg@plt>:
    a9f0:	ff 25 8a 66 03 00    	jmp    *0x3668a(%rip)        # 41080 <$ss5ErrorPsE9_userInfoyXlSgvg>
    a9f6:	68 10 00 00 00       	push   $0x10
    a9fb:	e9 e0 fe ff ff       	jmp    a8e0 <_init+0x20>

000000000000aa00 <swift_beginAccess@plt>:
    aa00:	ff 25 82 66 03 00    	jmp    *0x36682(%rip)        # 41088 <swift_beginAccess>
    aa06:	68 11 00 00 00       	push   $0x11
    aa0b:	e9 d0 fe ff ff       	jmp    a8e0 <_init+0x20>

000000000000aa10 <swift_retain@plt>:
    aa10:	ff 25 7a 66 03 00    	jmp    *0x3667a(%rip)        # 41090 <swift_retain>
    aa16:	68 12 00 00 00       	push   $0x12
    aa1b:	e9 c0 fe ff ff       	jmp    a8e0 <_init+0x20>

000000000000aa20 <swift_allocObject@plt>:
    aa20:	ff 25 72 66 03 00    	jmp    *0x36672(%rip)        # 41098 <swift_allocObject>
    aa26:	68 13 00 00 00       	push   $0x13
    aa2b:	e9 b0 fe ff ff       	jmp    a8e0 <_init+0x20>

000000000000aa30 <swift_getTypeByMangledNameInContext2@plt>:
    aa30:	ff 25 6a 66 03 00    	jmp    *0x3666a(%rip)        # 410a0 <swift_getTypeByMangledNameInContext2>
    aa36:	68 14 00 00 00       	push   $0x14
    aa3b:	e9 a0 fe ff ff       	jmp    a8e0 <_init+0x20>

000000000000aa40 <swift_makeBoxUnique@plt>:
    aa40:	ff 25 62 66 03 00    	jmp    *0x36662(%rip)        # 410a8 <swift_makeBoxUnique>
    aa46:	68 15 00 00 00       	push   $0x15
    aa4b:	e9 90 fe ff ff       	jmp    a8e0 <_init+0x20>

000000000000aa50 <swift_isUniquelyReferenced_nonNull_native@plt>:
    aa50:	ff 25 5a 66 03 00    	jmp    *0x3665a(%rip)        # 410b0 <swift_isUniquelyReferenced_nonNull_native>
    aa56:	68 16 00 00 00       	push   $0x16
    aa5b:	e9 80 fe ff ff       	jmp    a8e0 <_init+0x20>

000000000000aa60 <swift_dynamicCast@plt>:
    aa60:	ff 25 52 66 03 00    	jmp    *0x36652(%rip)        # 410b8 <swift_dynamicCast>
    aa66:	68 17 00 00 00       	push   $0x17
    aa6b:	e9 70 fe ff ff       	jmp    a8e0 <_init+0x20>

000000000000aa70 <free@plt>:
    aa70:	ff 25 4a 66 03 00    	jmp    *0x3664a(%rip)        # 410c0 <free@GLIBC_2.2.5>
    aa76:	68 18 00 00 00       	push   $0x18
    aa7b:	e9 60 fe ff ff       	jmp    a8e0 <_init+0x20>

000000000000aa80 <$sSS8UTF8ViewV13_foreignIndex_8offsetBySS0D0VAF_SitF@plt>:
    aa80:	ff 25 42 66 03 00    	jmp    *0x36642(%rip)        # 410c8 <$sSS8UTF8ViewV13_foreignIndex_8offsetBySS0D0VAF_SitF>
    aa86:	68 19 00 00 00       	push   $0x19
    aa8b:	e9 50 fe ff ff       	jmp    a8e0 <_init+0x20>

000000000000aa90 <$sSS9UTF16ViewV5index_8offsetBySS5IndexVAF_SitF@plt>:
    aa90:	ff 25 3a 66 03 00    	jmp    *0x3663a(%rip)        # 410d0 <$sSS9UTF16ViewV5index_8offsetBySS5IndexVAF_SitF>
    aa96:	68 1a 00 00 00       	push   $0x1a
    aa9b:	e9 40 fe ff ff       	jmp    a8e0 <_init+0x20>

000000000000aaa0 <$ss18_DictionaryStorageC8allocate8capacityAByxq_GSi_tFZ@plt>:
    aaa0:	ff 25 32 66 03 00    	jmp    *0x36632(%rip)        # 410d8 <$ss18_DictionaryStorageC8allocate8capacityAByxq_GSi_tFZ>
    aaa6:	68 1b 00 00 00       	push   $0x1b
    aaab:	e9 30 fe ff ff       	jmp    a8e0 <_init+0x20>

000000000000aab0 <swift_getMetatypeMetadata@plt>:
    aab0:	ff 25 2a 66 03 00    	jmp    *0x3662a(%rip)        # 410e0 <swift_getMetatypeMetadata>
    aab6:	68 1c 00 00 00       	push   $0x1c
    aabb:	e9 20 fe ff ff       	jmp    a8e0 <_init+0x20>

000000000000aac0 <$sSS10reflectingSSx_tclufC@plt>:
    aac0:	ff 25 22 66 03 00    	jmp    *0x36622(%rip)        # 410e8 <$sSS10reflectingSSx_tclufC>
    aac6:	68 1d 00 00 00       	push   $0x1d
    aacb:	e9 10 fe ff ff       	jmp    a8e0 <_init+0x20>

000000000000aad0 <swift_bridgeObjectRelease@plt>:
    aad0:	ff 25 1a 66 03 00    	jmp    *0x3661a(%rip)        # 410f0 <swift_bridgeObjectRelease>
    aad6:	68 1e 00 00 00       	push   $0x1e
    aadb:	e9 00 fe ff ff       	jmp    a8e0 <_init+0x20>

000000000000aae0 <$sSS8UTF8ViewV13_foreignIndex5afterSS0D0VAF_tF@plt>:
    aae0:	ff 25 12 66 03 00    	jmp    *0x36612(%rip)        # 410f8 <$sSS8UTF8ViewV13_foreignIndex5afterSS0D0VAF_tF>
    aae6:	68 1f 00 00 00       	push   $0x1f
    aaeb:	e9 f0 fd ff ff       	jmp    a8e0 <_init+0x20>

000000000000aaf0 <$sSS8UTF8ViewV17_foreignSubscript8positions5UInt8VSS5IndexV_tF@plt>:
    aaf0:	ff 25 0a 66 03 00    	jmp    *0x3660a(%rip)        # 41100 <$sSS8UTF8ViewV17_foreignSubscript8positions5UInt8VSS5IndexV_tF>
    aaf6:	68 20 00 00 00       	push   $0x20
    aafb:	e9 e0 fd ff ff       	jmp    a8e0 <_init+0x20>

000000000000ab00 <$ss13_StringObjectV10sharedUTF8SRys5UInt8VGvg@plt>:
    ab00:	ff 25 02 66 03 00    	jmp    *0x36602(%rip)        # 41108 <$ss13_StringObjectV10sharedUTF8SRys5UInt8VGvg>
    ab06:	68 21 00 00 00       	push   $0x21
    ab0b:	e9 d0 fd ff ff       	jmp    a8e0 <_init+0x20>

000000000000ab10 <malloc@plt>:
    ab10:	ff 25 fa 65 03 00    	jmp    *0x365fa(%rip)        # 41110 <malloc@GLIBC_2.2.5>
    ab16:	68 22 00 00 00       	push   $0x22
    ab1b:	e9 c0 fd ff ff       	jmp    a8e0 <_init+0x20>

000000000000ab20 <swift_getAssociatedConformanceWitness@plt>:
    ab20:	ff 25 f2 65 03 00    	jmp    *0x365f2(%rip)        # 41118 <swift_getAssociatedConformanceWitness>
    ab26:	68 23 00 00 00       	push   $0x23
    ab2b:	e9 b0 fd ff ff       	jmp    a8e0 <_init+0x20>

000000000000ab30 <swift_readAtKeyPath@plt>:
    ab30:	ff 25 ea 65 03 00    	jmp    *0x365ea(%rip)        # 41120 <swift_readAtKeyPath>
    ab36:	68 24 00 00 00       	push   $0x24
    ab3b:	e9 a0 fd ff ff       	jmp    a8e0 <_init+0x20>

000000000000ab40 <swift_modifyAtWritableKeyPath@plt>:
    ab40:	ff 25 e2 65 03 00    	jmp    *0x365e2(%rip)        # 41128 <swift_modifyAtWritableKeyPath>
    ab46:	68 25 00 00 00       	push   $0x25
    ab4b:	e9 90 fd ff ff       	jmp    a8e0 <_init+0x20>

000000000000ab50 <malloc_usable_size@plt>:
    ab50:	ff 25 da 65 03 00    	jmp    *0x365da(%rip)        # 41130 <malloc_usable_size@GLIBC_2.2.5>
    ab56:	68 26 00 00 00       	push   $0x26
    ab5b:	e9 80 fd ff ff       	jmp    a8e0 <_init+0x20>

000000000000ab60 <memmove@plt>:
    ab60:	ff 25 d2 65 03 00    	jmp    *0x365d2(%rip)        # 41138 <memmove@GLIBC_2.2.5>
    ab66:	68 27 00 00 00       	push   $0x27
    ab6b:	e9 70 fd ff ff       	jmp    a8e0 <_init+0x20>

000000000000ab70 <memcpy@plt>:
    ab70:	ff 25 ca 65 03 00    	jmp    *0x365ca(%rip)        # 41140 <memcpy@GLIBC_2.14>
    ab76:	68 28 00 00 00       	push   $0x28
    ab7b:	e9 60 fd ff ff       	jmp    a8e0 <_init+0x20>

000000000000ab80 <swift_arrayInitWithCopy@plt>:
    ab80:	ff 25 c2 65 03 00    	jmp    *0x365c2(%rip)        # 41148 <swift_arrayInitWithCopy>
    ab86:	68 29 00 00 00       	push   $0x29
    ab8b:	e9 50 fd ff ff       	jmp    a8e0 <_init+0x20>

000000000000ab90 <$ss23CustomStringConvertibleP11descriptionSSvgTj@plt>:
    ab90:	ff 25 ba 65 03 00    	jmp    *0x365ba(%rip)        # 41150 <$ss23CustomStringConvertibleP11descriptionSSvgTj>
    ab96:	68 2a 00 00 00       	push   $0x2a
    ab9b:	e9 40 fd ff ff       	jmp    a8e0 <_init+0x20>

000000000000aba0 <$sSS6appendyySSF@plt>:
    aba0:	ff 25 b2 65 03 00    	jmp    *0x365b2(%rip)        # 41158 <$sSS6appendyySSF>
    aba6:	68 2b 00 00 00       	push   $0x2b
    abab:	e9 30 fd ff ff       	jmp    a8e0 <_init+0x20>

000000000000abb0 <$ss10SetAlgebraPsEyxqd__ncSTRd__7ElementQyd__ACRtzlufC@plt>:
    abb0:	ff 25 aa 65 03 00    	jmp    *0x365aa(%rip)        # 41160 <$ss10SetAlgebraPsEyxqd__ncSTRd__7ElementQyd__ACRtzlufC>
    abb6:	68 2c 00 00 00       	push   $0x2c
    abbb:	e9 20 fd ff ff       	jmp    a8e0 <_init+0x20>

000000000000abc0 <$ss6HasherV5_hash4seed_S2i_s6UInt64VtFZ@plt>:
    abc0:	ff 25 a2 65 03 00    	jmp    *0x365a2(%rip)        # 41168 <$ss6HasherV5_hash4seed_S2i_s6UInt64VtFZ>
    abc6:	68 2d 00 00 00       	push   $0x2d
    abcb:	e9 10 fd ff ff       	jmp    a8e0 <_init+0x20>

000000000000abd0 <$ss50ELEMENT_TYPE_OF_SET_VIOLATES_HASHABLE_REQUIREMENTSys5NeverOypXpF@plt>:
    abd0:	ff 25 9a 65 03 00    	jmp    *0x3659a(%rip)        # 41170 <$ss50ELEMENT_TYPE_OF_SET_VIOLATES_HASHABLE_REQUIREMENTSys5NeverOypXpF>
    abd6:	68 2e 00 00 00       	push   $0x2e
    abdb:	e9 00 fd ff ff       	jmp    a8e0 <_init+0x20>

000000000000abe0 <$ss11_SetStorageC4copy8originalAByxGs05__RawaB0C_tFZ@plt>:
    abe0:	ff 25 92 65 03 00    	jmp    *0x36592(%rip)        # 41178 <$ss11_SetStorageC4copy8originalAByxGs05__RawaB0C_tFZ>
    abe6:	68 2f 00 00 00       	push   $0x2f
    abeb:	e9 f0 fc ff ff       	jmp    a8e0 <_init+0x20>

000000000000abf0 <$ss11_SetStorageC6resize8original8capacity4moveAByxGs05__RawaB0C_SiSbtFZ@plt>:
    abf0:	ff 25 8a 65 03 00    	jmp    *0x3658a(%rip)        # 41180 <$ss11_SetStorageC6resize8original8capacity4moveAByxGs05__RawaB0C_SiSbtFZ>
    abf6:	68 30 00 00 00       	push   $0x30
    abfb:	e9 e0 fc ff ff       	jmp    a8e0 <_init+0x20>

000000000000ac00 <memset@plt>:
    ac00:	ff 25 82 65 03 00    	jmp    *0x36582(%rip)        # 41188 <memset@GLIBC_2.2.5>
    ac06:	68 31 00 00 00       	push   $0x31
    ac0b:	e9 d0 fc ff ff       	jmp    a8e0 <_init+0x20>

000000000000ac10 <swift_dynamicCastMetatype@plt>:
    ac10:	ff 25 7a 65 03 00    	jmp    *0x3657a(%rip)        # 41190 <swift_dynamicCastMetatype>
    ac16:	68 32 00 00 00       	push   $0x32
    ac1b:	e9 c0 fc ff ff       	jmp    a8e0 <_init+0x20>

000000000000ac20 <$ss11_StringGutsV4growyySiF@plt>:
    ac20:	ff 25 72 65 03 00    	jmp    *0x36572(%rip)        # 41198 <$ss11_StringGutsV4growyySiF>
    ac26:	68 33 00 00 00       	push   $0x33
    ac2b:	e9 b0 fc ff ff       	jmp    a8e0 <_init+0x20>

000000000000ac30 <$ss9_typeName_9qualifiedSSypXp_SbtF@plt>:
    ac30:	ff 25 6a 65 03 00    	jmp    *0x3656a(%rip)        # 411a0 <$ss9_typeName_9qualifiedSSypXp_SbtF>
    ac36:	68 34 00 00 00       	push   $0x34
    ac3b:	e9 a0 fc ff ff       	jmp    a8e0 <_init+0x20>

000000000000ac40 <$ss17_assertionFailure__4file4line5flagss5NeverOs12StaticStringV_SSAHSus6UInt32VtF@plt>:
    ac40:	ff 25 62 65 03 00    	jmp    *0x36562(%rip)        # 411a8 <$ss17_assertionFailure__4file4line5flagss5NeverOs12StaticStringV_SSAHSus6UInt32VtF>
    ac46:	68 35 00 00 00       	push   $0x35
    ac4b:	e9 90 fc ff ff       	jmp    a8e0 <_init+0x20>

000000000000ac50 <swift_deallocObject@plt>:
    ac50:	ff 25 5a 65 03 00    	jmp    *0x3655a(%rip)        # 411b0 <swift_deallocObject>
    ac56:	68 36 00 00 00       	push   $0x36
    ac5b:	e9 80 fc ff ff       	jmp    a8e0 <_init+0x20>

000000000000ac60 <$ss53KEY_TYPE_OF_DICTIONARY_VIOLATES_HASHABLE_REQUIREMENTSys5NeverOypXpF@plt>:
    ac60:	ff 25 52 65 03 00    	jmp    *0x36552(%rip)        # 411b8 <$ss53KEY_TYPE_OF_DICTIONARY_VIOLATES_HASHABLE_REQUIREMENTSys5NeverOypXpF>
    ac66:	68 37 00 00 00       	push   $0x37
    ac6b:	e9 70 fc ff ff       	jmp    a8e0 <_init+0x20>

000000000000ac70 <$sSqMa@plt>:
    ac70:	ff 25 4a 65 03 00    	jmp    *0x3654a(%rip)        # 411c0 <$sSqMa>
    ac76:	68 38 00 00 00       	push   $0x38
    ac7b:	e9 60 fc ff ff       	jmp    a8e0 <_init+0x20>

000000000000ac80 <$ss15ContiguousArrayV5countSivg@plt>:
    ac80:	ff 25 42 65 03 00    	jmp    *0x36542(%rip)        # 411c8 <$ss15ContiguousArrayV5countSivg>
    ac86:	68 39 00 00 00       	push   $0x39
    ac8b:	e9 50 fc ff ff       	jmp    a8e0 <_init+0x20>

000000000000ac90 <$ss13repeatElement_5counts8RepeatedVyxGx_SitlF@plt>:
    ac90:	ff 25 3a 65 03 00    	jmp    *0x3653a(%rip)        # 411d0 <$ss13repeatElement_5counts8RepeatedVyxGx_SitlF>
    ac96:	68 3a 00 00 00       	push   $0x3a
    ac9b:	e9 40 fc ff ff       	jmp    a8e0 <_init+0x20>

000000000000aca0 <$ss15ContiguousArrayVMa@plt>:
    aca0:	ff 25 32 65 03 00    	jmp    *0x36532(%rip)        # 411d8 <$ss15ContiguousArrayVMa>
    aca6:	68 3b 00 00 00       	push   $0x3b
    acab:	e9 30 fc ff ff       	jmp    a8e0 <_init+0x20>

000000000000acb0 <$ss8RepeatedVMa@plt>:
    acb0:	ff 25 2a 65 03 00    	jmp    *0x3652a(%rip)        # 411e0 <$ss8RepeatedVMa>
    acb6:	68 3c 00 00 00       	push   $0x3c
    acbb:	e9 20 fc ff ff       	jmp    a8e0 <_init+0x20>

000000000000acc0 <$ss15ContiguousArrayV6append10contentsOfyqd__n_t7ElementQyd__RszSTRd__lF@plt>:
    acc0:	ff 25 22 65 03 00    	jmp    *0x36522(%rip)        # 411e8 <$ss15ContiguousArrayV6append10contentsOfyqd__n_t7ElementQyd__RszSTRd__lF>
    acc6:	68 3d 00 00 00       	push   $0x3d
    accb:	e9 10 fc ff ff       	jmp    a8e0 <_init+0x20>

000000000000acd0 <$ss15ContiguousArrayVyxSicig@plt>:
    acd0:	ff 25 1a 65 03 00    	jmp    *0x3651a(%rip)        # 411f0 <$ss15ContiguousArrayVyxSicig>
    acd6:	68 3e 00 00 00       	push   $0x3e
    acdb:	e9 00 fc ff ff       	jmp    a8e0 <_init+0x20>

000000000000ace0 <$ss15ContiguousArrayV21_makeMutableAndUniqueyyF@plt>:
    ace0:	ff 25 12 65 03 00    	jmp    *0x36512(%rip)        # 411f8 <$ss15ContiguousArrayV21_makeMutableAndUniqueyyF>
    ace6:	68 3f 00 00 00       	push   $0x3f
    aceb:	e9 f0 fb ff ff       	jmp    a8e0 <_init+0x20>

000000000000acf0 <swift_allocBox@plt>:
    acf0:	ff 25 0a 65 03 00    	jmp    *0x3650a(%rip)        # 41200 <swift_allocBox>
    acf6:	68 40 00 00 00       	push   $0x40
    acfb:	e9 e0 fb ff ff       	jmp    a8e0 <_init+0x20>

000000000000ad00 <$ss15ContiguousArrayV22_allocateUninitializedyAByxG_SpyxGtSiFZ@plt>:
    ad00:	ff 25 02 65 03 00    	jmp    *0x36502(%rip)        # 41208 <$ss15ContiguousArrayV22_allocateUninitializedyAByxG_SpyxGtSiFZ>
    ad06:	68 41 00 00 00       	push   $0x41
    ad0b:	e9 d0 fb ff ff       	jmp    a8e0 <_init+0x20>

000000000000ad10 <$sSPMa@plt>:
    ad10:	ff 25 fa 64 03 00    	jmp    *0x364fa(%rip)        # 41210 <$sSPMa>
    ad16:	68 42 00 00 00       	push   $0x42
    ad1b:	e9 c0 fb ff ff       	jmp    a8e0 <_init+0x20>

000000000000ad20 <$sSR11baseAddressSPyxGSgvg@plt>:
    ad20:	ff 25 f2 64 03 00    	jmp    *0x364f2(%rip)        # 41218 <$sSR11baseAddressSPyxGSgvg>
    ad26:	68 43 00 00 00       	push   $0x43
    ad2b:	e9 b0 fb ff ff       	jmp    a8e0 <_init+0x20>

000000000000ad30 <swift_checkMetadataState@plt>:
    ad30:	ff 25 ea 64 03 00    	jmp    *0x364ea(%rip)        # 41220 <swift_checkMetadataState>
    ad36:	68 44 00 00 00       	push   $0x44
    ad3b:	e9 a0 fb ff ff       	jmp    a8e0 <_init+0x20>

000000000000ad40 <swift_initStructMetadata@plt>:
    ad40:	ff 25 e2 64 03 00    	jmp    *0x364e2(%rip)        # 41228 <swift_initStructMetadata>
    ad46:	68 45 00 00 00       	push   $0x45
    ad4b:	e9 90 fb ff ff       	jmp    a8e0 <_init+0x20>

000000000000ad50 <swift_getAssociatedTypeWitness@plt>:
    ad50:	ff 25 da 64 03 00    	jmp    *0x364da(%rip)        # 41230 <swift_getAssociatedTypeWitness>
    ad56:	68 46 00 00 00       	push   $0x46
    ad5b:	e9 80 fb ff ff       	jmp    a8e0 <_init+0x20>

000000000000ad60 <swift_getTupleTypeLayout2@plt>:
    ad60:	ff 25 d2 64 03 00    	jmp    *0x364d2(%rip)        # 41238 <swift_getTupleTypeLayout2>
    ad66:	68 47 00 00 00       	push   $0x47
    ad6b:	e9 70 fb ff ff       	jmp    a8e0 <_init+0x20>

000000000000ad70 <swift_initEnumMetadataMultiPayload@plt>:
    ad70:	ff 25 ca 64 03 00    	jmp    *0x364ca(%rip)        # 41240 <swift_initEnumMetadataMultiPayload>
    ad76:	68 48 00 00 00       	push   $0x48
    ad7b:	e9 60 fb ff ff       	jmp    a8e0 <_init+0x20>

000000000000ad80 <$ss10SetAlgebraP10isSuperset2ofSbx_tFTj@plt>:
    ad80:	ff 25 c2 64 03 00    	jmp    *0x364c2(%rip)        # 41248 <$ss10SetAlgebraP10isSuperset2ofSbx_tFTj>
    ad86:	68 49 00 00 00       	push   $0x49
    ad8b:	e9 50 fb ff ff       	jmp    a8e0 <_init+0x20>

000000000000ad90 <$ss10SetAlgebraP11subtractingyxxFTj@plt>:
    ad90:	ff 25 ba 64 03 00    	jmp    *0x364ba(%rip)        # 41250 <$ss10SetAlgebraP11subtractingyxxFTj>
    ad96:	68 4a 00 00 00       	push   $0x4a
    ad9b:	e9 40 fb ff ff       	jmp    a8e0 <_init+0x20>

000000000000ada0 <swift_getTupleTypeMetadata2@plt>:
    ada0:	ff 25 b2 64 03 00    	jmp    *0x364b2(%rip)        # 41258 <swift_getTupleTypeMetadata2>
    ada6:	68 4b 00 00 00       	push   $0x4b
    adab:	e9 30 fb ff ff       	jmp    a8e0 <_init+0x20>

000000000000adb0 <swift_storeEnumTagMultiPayload@plt>:
    adb0:	ff 25 aa 64 03 00    	jmp    *0x364aa(%rip)        # 41260 <swift_storeEnumTagMultiPayload>
    adb6:	68 4c 00 00 00       	push   $0x4c
    adbb:	e9 20 fb ff ff       	jmp    a8e0 <_init+0x20>

000000000000adc0 <$sSS4hash4intoys6HasherVz_tF@plt>:
    adc0:	ff 25 a2 64 03 00    	jmp    *0x364a2(%rip)        # 41268 <$sSS4hash4intoys6HasherVz_tF>
    adc6:	68 4d 00 00 00       	push   $0x4d
    adcb:	e9 10 fb ff ff       	jmp    a8e0 <_init+0x20>

000000000000add0 <$ss27_stringCompareWithSmolCheck__9expectingSbs11_StringGutsV_ADs01_G16ComparisonResultOtF@plt>:
    add0:	ff 25 9a 64 03 00    	jmp    *0x3649a(%rip)        # 41270 <$ss27_stringCompareWithSmolCheck__9expectingSbs11_StringGutsV_ADs01_G16ComparisonResultOtF>
    add6:	68 4e 00 00 00       	push   $0x4e
    addb:	e9 00 fb ff ff       	jmp    a8e0 <_init+0x20>

000000000000ade0 <$ss15ContiguousArrayVAByxGycfC@plt>:
    ade0:	ff 25 92 64 03 00    	jmp    *0x36492(%rip)        # 41278 <$ss15ContiguousArrayVAByxGycfC>
    ade6:	68 4f 00 00 00       	push   $0x4f
    adeb:	e9 f0 fa ff ff       	jmp    a8e0 <_init+0x20>

000000000000adf0 <$ss15ContiguousArrayV15reserveCapacityyySiF@plt>:
    adf0:	ff 25 8a 64 03 00    	jmp    *0x3648a(%rip)        # 41280 <$ss15ContiguousArrayV15reserveCapacityyySiF>
    adf6:	68 50 00 00 00       	push   $0x50
    adfb:	e9 e0 fa ff ff       	jmp    a8e0 <_init+0x20>

000000000000ae00 <$ss15ContiguousArrayV28_allocateBufferUninitialized15minimumCapacitys01_abD0VyxGSi_tFZ@plt>:
    ae00:	ff 25 82 64 03 00    	jmp    *0x36482(%rip)        # 41288 <$ss15ContiguousArrayV28_allocateBufferUninitialized15minimumCapacitys01_abD0VyxGSi_tFZ>
    ae06:	68 51 00 00 00       	push   $0x51
    ae0b:	e9 d0 fa ff ff       	jmp    a8e0 <_init+0x20>

000000000000ae10 <$ss15ContiguousArrayV6appendyyxnF@plt>:
    ae10:	ff 25 7a 64 03 00    	jmp    *0x3647a(%rip)        # 41290 <$ss15ContiguousArrayV6appendyyxnF>
    ae16:	68 52 00 00 00       	push   $0x52
    ae1b:	e9 c0 fa ff ff       	jmp    a8e0 <_init+0x20>

000000000000ae20 <$sSmsSKRzrlE10removeLast7ElementSTQzyF@plt>:
    ae20:	ff 25 72 64 03 00    	jmp    *0x36472(%rip)        # 41298 <$sSmsSKRzrlE10removeLast7ElementSTQzyF>
    ae26:	68 53 00 00 00       	push   $0x53
    ae2b:	e9 b0 fa ff ff       	jmp    a8e0 <_init+0x20>

000000000000ae30 <$sSr11baseAddressSpyxGSgvg@plt>:
    ae30:	ff 25 6a 64 03 00    	jmp    *0x3646a(%rip)        # 412a0 <$sSr11baseAddressSpyxGSgvg>
    ae36:	68 54 00 00 00       	push   $0x54
    ae3b:	e9 a0 fa ff ff       	jmp    a8e0 <_init+0x20>

000000000000ae40 <$sSpMa@plt>:
    ae40:	ff 25 62 64 03 00    	jmp    *0x36462(%rip)        # 412a8 <$sSpMa>
    ae46:	68 55 00 00 00       	push   $0x55
    ae4b:	e9 90 fa ff ff       	jmp    a8e0 <_init+0x20>

000000000000ae50 <$ss18_DictionaryStorageC4copy8originalAByxq_Gs05__RawaB0C_tFZ@plt>:
    ae50:	ff 25 5a 64 03 00    	jmp    *0x3645a(%rip)        # 412b0 <$ss18_DictionaryStorageC4copy8originalAByxq_Gs05__RawaB0C_tFZ>
    ae56:	68 56 00 00 00       	push   $0x56
    ae5b:	e9 80 fa ff ff       	jmp    a8e0 <_init+0x20>

000000000000ae60 <swift_bridgeObjectRetain@plt>:
    ae60:	ff 25 52 64 03 00    	jmp    *0x36452(%rip)        # 412b8 <swift_bridgeObjectRetain>
    ae66:	68 57 00 00 00       	push   $0x57
    ae6b:	e9 70 fa ff ff       	jmp    a8e0 <_init+0x20>

000000000000ae70 <$ss18_DictionaryStorageC6resize8original8capacity4moveAByxq_Gs05__RawaB0C_SiSbtFZ@plt>:
    ae70:	ff 25 4a 64 03 00    	jmp    *0x3644a(%rip)        # 412c0 <$ss18_DictionaryStorageC6resize8original8capacity4moveAByxq_Gs05__RawaB0C_SiSbtFZ>
    ae76:	68 58 00 00 00       	push   $0x58
    ae7b:	e9 60 fa ff ff       	jmp    a8e0 <_init+0x20>

000000000000ae80 <$sSD6ValuesV11descriptionSSvg@plt>:
    ae80:	ff 25 42 64 03 00    	jmp    *0x36442(%rip)        # 412c8 <$sSD6ValuesV11descriptionSSvg>
    ae86:	68 59 00 00 00       	push   $0x59
    ae8b:	e9 50 fa ff ff       	jmp    a8e0 <_init+0x20>

000000000000ae90 <swift_getTupleTypeMetadata@plt>:
    ae90:	ff 25 3a 64 03 00    	jmp    *0x3643a(%rip)        # 412d0 <swift_getTupleTypeMetadata>
    ae96:	68 5a 00 00 00       	push   $0x5a
    ae9b:	e9 40 fa ff ff       	jmp    a8e0 <_init+0x20>

000000000000aea0 <swift_getEnumTagSinglePayloadGeneric@plt>:
    aea0:	ff 25 32 64 03 00    	jmp    *0x36432(%rip)        # 412d8 <swift_getEnumTagSinglePayloadGeneric>
    aea6:	68 5b 00 00 00       	push   $0x5b
    aeab:	e9 30 fa ff ff       	jmp    a8e0 <_init+0x20>

000000000000aeb0 <swift_storeEnumTagSinglePayloadGeneric@plt>:
    aeb0:	ff 25 2a 64 03 00    	jmp    *0x3642a(%rip)        # 412e0 <swift_storeEnumTagSinglePayloadGeneric>
    aeb6:	68 5c 00 00 00       	push   $0x5c
    aebb:	e9 20 fa ff ff       	jmp    a8e0 <_init+0x20>

000000000000aec0 <swift_retain_n@plt>:
    aec0:	ff 25 22 64 03 00    	jmp    *0x36422(%rip)        # 412e8 <swift_retain_n>
    aec6:	68 5d 00 00 00       	push   $0x5d
    aecb:	e9 10 fa ff ff       	jmp    a8e0 <_init+0x20>

000000000000aed0 <swift_release_n@plt>:
    aed0:	ff 25 1a 64 03 00    	jmp    *0x3641a(%rip)        # 412f0 <swift_release_n>
    aed6:	68 5e 00 00 00       	push   $0x5e
    aedb:	e9 00 fa ff ff       	jmp    a8e0 <_init+0x20>

000000000000aee0 <$ss15ContinuousClockVMa@plt>:
    aee0:	ff 25 12 64 03 00    	jmp    *0x36412(%rip)        # 412f8 <$ss15ContinuousClockVMa>
    aee6:	68 5f 00 00 00       	push   $0x5f
    aeeb:	e9 f0 f9 ff ff       	jmp    a8e0 <_init+0x20>

000000000000aef0 <$ss15ContinuousClockVABycfC@plt>:
    aef0:	ff 25 0a 64 03 00    	jmp    *0x3640a(%rip)        # 41300 <$ss15ContinuousClockVABycfC>
    aef6:	68 60 00 00 00       	push   $0x60
    aefb:	e9 e0 f9 ff ff       	jmp    a8e0 <_init+0x20>

000000000000af00 <swift_task_dealloc@plt>:
    af00:	ff 25 02 64 03 00    	jmp    *0x36402(%rip)        # 41308 <swift_task_dealloc>
    af06:	68 61 00 00 00       	push   $0x61
    af0b:	e9 d0 f9 ff ff       	jmp    a8e0 <_init+0x20>

000000000000af10 <$ss15ContinuousClockV7InstantVMa@plt>:
    af10:	ff 25 fa 63 03 00    	jmp    *0x363fa(%rip)        # 41310 <$ss15ContinuousClockV7InstantVMa>
    af16:	68 62 00 00 00       	push   $0x62
    af1b:	e9 c0 f9 ff ff       	jmp    a8e0 <_init+0x20>

000000000000af20 <swift_once@plt>:
    af20:	ff 25 f2 63 03 00    	jmp    *0x363f2(%rip)        # 41318 <swift_once>
    af26:	68 63 00 00 00       	push   $0x63
    af2b:	e9 b0 f9 ff ff       	jmp    a8e0 <_init+0x20>

000000000000af30 <$ss15ContinuousClockV3nowAB7InstantVvg@plt>:
    af30:	ff 25 ea 63 03 00    	jmp    *0x363ea(%rip)        # 41320 <$ss15ContinuousClockV3nowAB7InstantVvg>
    af36:	68 64 00 00 00       	push   $0x64
    af3b:	e9 a0 f9 ff ff       	jmp    a8e0 <_init+0x20>

000000000000af40 <$ss8DurationV4zeroABvgZ@plt>:
    af40:	ff 25 e2 63 03 00    	jmp    *0x363e2(%rip)        # 41328 <$ss8DurationV4zeroABvgZ>
    af46:	68 65 00 00 00       	push   $0x65
    af4b:	e9 90 f9 ff ff       	jmp    a8e0 <_init+0x20>

000000000000af50 <$ss8DurationV10componentss5Int64V7seconds_AE11attosecondstvg@plt>:
    af50:	ff 25 da 63 03 00    	jmp    *0x363da(%rip)        # 41330 <$ss8DurationV10componentss5Int64V7seconds_AE11attosecondstvg>
    af56:	68 66 00 00 00       	push   $0x66
    af5b:	e9 80 f9 ff ff       	jmp    a8e0 <_init+0x20>

000000000000af60 <$ss15ContinuousClockV7InstantV8duration2tos8DurationVAD_tF@plt>:
    af60:	ff 25 d2 63 03 00    	jmp    *0x363d2(%rip)        # 41338 <$ss15ContinuousClockV7InstantV8duration2tos8DurationVAD_tF>
    af66:	68 67 00 00 00       	push   $0x67
    af6b:	e9 70 f9 ff ff       	jmp    a8e0 <_init+0x20>

000000000000af70 <$sSS20FoundationEssentialsE8EncodingV5asciiACvau@plt>:
    af70:	ff 25 ca 63 03 00    	jmp    *0x363ca(%rip)        # 41340 <$sSS20FoundationEssentialsE8EncodingV5asciiACvau>
    af76:	68 68 00 00 00       	push   $0x68
    af7b:	e9 60 f9 ff ff       	jmp    a8e0 <_init+0x20>

000000000000af80 <$sSS20FoundationEssentialsE5bytes8encodingSSSgxh_SSAAE8EncodingVtcSTRzs5UInt8V7ElementRtzlufC@plt>:
    af80:	ff 25 c2 63 03 00    	jmp    *0x363c2(%rip)        # 41348 <$sSS20FoundationEssentialsE5bytes8encodingSSSgxh_SSAAE8EncodingVtcSTRzs5UInt8V7ElementRtzlufC>
    af86:	68 69 00 00 00       	push   $0x69
    af8b:	e9 50 f9 ff ff       	jmp    a8e0 <_init+0x20>

000000000000af90 <$sScA15unownedExecutorScevgTj@plt>:
    af90:	ff 25 ba 63 03 00    	jmp    *0x363ba(%rip)        # 41350 <$sScA15unownedExecutorScevgTj>
    af96:	68 6a 00 00 00       	push   $0x6a
    af9b:	e9 40 f9 ff ff       	jmp    a8e0 <_init+0x20>

000000000000afa0 <swift_task_switch@plt>:
    afa0:	ff 25 b2 63 03 00    	jmp    *0x363b2(%rip)        # 41358 <swift_task_switch>
    afa6:	68 6b 00 00 00       	push   $0x6b
    afab:	e9 30 f9 ff ff       	jmp    a8e0 <_init+0x20>

000000000000afb0 <exit@plt>:
    afb0:	ff 25 aa 63 03 00    	jmp    *0x363aa(%rip)        # 41360 <exit@GLIBC_2.2.5>
    afb6:	68 6c 00 00 00       	push   $0x6c
    afbb:	e9 20 f9 ff ff       	jmp    a8e0 <_init+0x20>

000000000000afc0 <$sScMMa@plt>:
    afc0:	ff 25 a2 63 03 00    	jmp    *0x363a2(%rip)        # 41368 <$sScMMa>
    afc6:	68 6d 00 00 00       	push   $0x6d
    afcb:	e9 10 f9 ff ff       	jmp    a8e0 <_init+0x20>

000000000000afd0 <$sScM6sharedScMvgZ@plt>:
    afd0:	ff 25 9a 63 03 00    	jmp    *0x3639a(%rip)        # 41370 <$sScM6sharedScMvgZ>
    afd6:	68 6e 00 00 00       	push   $0x6e
    afdb:	e9 00 f9 ff ff       	jmp    a8e0 <_init+0x20>

000000000000afe0 <swift_task_alloc@plt>:
    afe0:	ff 25 92 63 03 00    	jmp    *0x36392(%rip)        # 41378 <swift_task_alloc>
    afe6:	68 6f 00 00 00       	push   $0x6f
    afeb:	e9 f0 f8 ff ff       	jmp    a8e0 <_init+0x20>

000000000000aff0 <swift_errorInMain@plt>:
    aff0:	ff 25 8a 63 03 00    	jmp    *0x3638a(%rip)        # 41380 <swift_errorInMain>
    aff6:	68 70 00 00 00       	push   $0x70
    affb:	e9 e0 f8 ff ff       	jmp    a8e0 <_init+0x20>

000000000000b000 <$ss5print_9separator10terminatoryypd_S2StF@plt>:
    b000:	ff 25 82 63 03 00    	jmp    *0x36382(%rip)        # 41388 <$ss5print_9separator10terminatoryypd_S2StF>
    b006:	68 71 00 00 00       	push   $0x71
    b00b:	e9 d0 f8 ff ff       	jmp    a8e0 <_init+0x20>

000000000000b010 <sleep@plt>:
    b010:	ff 25 7a 63 03 00    	jmp    *0x3637a(%rip)        # 41390 <sleep@GLIBC_2.2.5>
    b016:	68 72 00 00 00       	push   $0x72
    b01b:	e9 c0 f8 ff ff       	jmp    a8e0 <_init+0x20>

000000000000b020 <swift_getTypeByMangledNameInContextInMetadataState2@plt>:
    b020:	ff 25 72 63 03 00    	jmp    *0x36372(%rip)        # 41398 <swift_getTypeByMangledNameInContextInMetadataState2>
    b026:	68 73 00 00 00       	push   $0x73
    b02b:	e9 b0 f8 ff ff       	jmp    a8e0 <_init+0x20>

000000000000b030 <swift_slowAlloc@plt>:
    b030:	ff 25 6a 63 03 00    	jmp    *0x3636a(%rip)        # 413a0 <swift_slowAlloc>
    b036:	68 74 00 00 00       	push   $0x74
    b03b:	e9 a0 f8 ff ff       	jmp    a8e0 <_init+0x20>

000000000000b040 <swift_task_create@plt>:
    b040:	ff 25 62 63 03 00    	jmp    *0x36362(%rip)        # 413a8 <swift_task_create>
    b046:	68 75 00 00 00       	push   $0x75
    b04b:	e9 90 f8 ff ff       	jmp    a8e0 <_init+0x20>

000000000000b050 <swift_task_getMainExecutor@plt>:
    b050:	ff 25 5a 63 03 00    	jmp    *0x3635a(%rip)        # 413b0 <swift_task_getMainExecutor>
    b056:	68 76 00 00 00       	push   $0x76
    b05b:	e9 80 f8 ff ff       	jmp    a8e0 <_init+0x20>

000000000000b060 <swift_job_run@plt>:
    b060:	ff 25 52 63 03 00    	jmp    *0x36352(%rip)        # 413b8 <swift_job_run>
    b066:	68 77 00 00 00       	push   $0x77
    b06b:	e9 70 f8 ff ff       	jmp    a8e0 <_init+0x20>

000000000000b070 <swift_task_asyncMainDrainQueue@plt>:
    b070:	ff 25 4a 63 03 00    	jmp    *0x3634a(%rip)        # 413c0 <swift_task_asyncMainDrainQueue>
    b076:	68 78 00 00 00       	push   $0x78
    b07b:	e9 60 f8 ff ff       	jmp    a8e0 <_init+0x20>

000000000000b080 <swift_getSingletonMetadata@plt>:
    b080:	ff 25 42 63 03 00    	jmp    *0x36342(%rip)        # 413c8 <swift_getSingletonMetadata>
    b086:	68 79 00 00 00       	push   $0x79
    b08b:	e9 50 f8 ff ff       	jmp    a8e0 <_init+0x20>

000000000000b090 <$s20FoundationEssentials11ProcessInfoC07processD0ACvau@plt>:
    b090:	ff 25 3a 63 03 00    	jmp    *0x3633a(%rip)        # 413d0 <$s20FoundationEssentials11ProcessInfoC07processD0ACvau>
    b096:	68 7a 00 00 00       	push   $0x7a
    b09b:	e9 40 f8 ff ff       	jmp    a8e0 <_init+0x20>

000000000000b0a0 <$s20FoundationEssentials11ProcessInfoC14physicalMemorys6UInt64Vvg@plt>:
    b0a0:	ff 25 32 63 03 00    	jmp    *0x36332(%rip)        # 413d8 <$s20FoundationEssentials11ProcessInfoC14physicalMemorys6UInt64Vvg>
    b0a6:	68 7b 00 00 00       	push   $0x7b
    b0ab:	e9 30 f8 ff ff       	jmp    a8e0 <_init+0x20>

000000000000b0b0 <$sSS20FoundationEssentialsE8EncodingV4utf8ACvau@plt>:
    b0b0:	ff 25 2a 63 03 00    	jmp    *0x3632a(%rip)        # 413e0 <$sSS20FoundationEssentialsE8EncodingV4utf8ACvau>
    b0b6:	68 7c 00 00 00       	push   $0x7c
    b0bb:	e9 20 f8 ff ff       	jmp    a8e0 <_init+0x20>

000000000000b0c0 <$sSS20FoundationEssentialsE14contentsOfFile8encodingS2Sh_SSAAE8EncodingVtKcfC@plt>:
    b0c0:	ff 25 22 63 03 00    	jmp    *0x36322(%rip)        # 413e8 <$sSS20FoundationEssentialsE14contentsOfFile8encodingS2Sh_SSAAE8EncodingVtKcfC>
    b0c6:	68 7d 00 00 00       	push   $0x7d
    b0cb:	e9 10 f8 ff ff       	jmp    a8e0 <_init+0x20>

000000000000b0d0 <$s10Foundation12CharacterSetV8newlinesACvgZ@plt>:
    b0d0:	ff 25 1a 63 03 00    	jmp    *0x3631a(%rip)        # 413f0 <$s10Foundation12CharacterSetV8newlinesACvgZ>
    b0d6:	68 7e 00 00 00       	push   $0x7e
    b0db:	e9 00 f8 ff ff       	jmp    a8e0 <_init+0x20>

000000000000b0e0 <$sSy10FoundationE10components11separatedBySaySSGAA12CharacterSetV_tF@plt>:
    b0e0:	ff 25 12 63 03 00    	jmp    *0x36312(%rip)        # 413f8 <$sSy10FoundationE10components11separatedBySaySSGAA12CharacterSetV_tF>
    b0e6:	68 7f 00 00 00       	push   $0x7f
    b0eb:	e9 f0 f7 ff ff       	jmp    a8e0 <_init+0x20>

000000000000b0f0 <$sSy10FoundationE5range2of7optionsAB6localeSnySS5IndexVGSgqd___SS0A10EssentialsE14CompareOptionsVAiJ6LocaleVSgtSyRd__lF@plt>:
    b0f0:	ff 25 0a 63 03 00    	jmp    *0x3630a(%rip)        # 41400 <$sSy10FoundationE5range2of7optionsAB6localeSnySS5IndexVGSgqd___SS0A10EssentialsE14CompareOptionsVAiJ6LocaleVSgtSyRd__lF>
    b0f6:	68 80 00 00 00       	push   $0x80
    b0fb:	e9 e0 f7 ff ff       	jmp    a8e0 <_init+0x20>

000000000000b100 <$s20FoundationEssentials11ProcessInfoC8hostNameSSvg@plt>:
    b100:	ff 25 02 63 03 00    	jmp    *0x36302(%rip)        # 41408 <$s20FoundationEssentials11ProcessInfoC8hostNameSSvg>
    b106:	68 81 00 00 00       	push   $0x81
    b10b:	e9 d0 f7 ff ff       	jmp    a8e0 <_init+0x20>

000000000000b110 <$s20FoundationEssentials11ProcessInfoC14processorCountSivg@plt>:
    b110:	ff 25 fa 62 03 00    	jmp    *0x362fa(%rip)        # 41410 <$s20FoundationEssentials11ProcessInfoC14processorCountSivg>
    b116:	68 82 00 00 00       	push   $0x82
    b11b:	e9 c0 f7 ff ff       	jmp    a8e0 <_init+0x20>

000000000000b120 <swift_initStackObject@plt>:
    b120:	ff 25 f2 62 03 00    	jmp    *0x362f2(%rip)        # 41418 <swift_initStackObject>
    b126:	68 83 00 00 00       	push   $0x83
    b12b:	e9 b0 f7 ff ff       	jmp    a8e0 <_init+0x20>

000000000000b130 <$sSS10FoundationE6format6locale9argumentsS2Sh_0A10Essentials6LocaleVSghSays7CVarArg_pGhtcfC@plt>:
    b130:	ff 25 ea 62 03 00    	jmp    *0x362ea(%rip)        # 41420 <$sSS10FoundationE6format6locale9argumentsS2Sh_0A10Essentials6LocaleVSghSays7CVarArg_pGhtcfC>
    b136:	68 84 00 00 00       	push   $0x84
    b13b:	e9 a0 f7 ff ff       	jmp    a8e0 <_init+0x20>

000000000000b140 <swift_setDeallocating@plt>:
    b140:	ff 25 e2 62 03 00    	jmp    *0x362e2(%rip)        # 41428 <swift_setDeallocating>
    b146:	68 85 00 00 00       	push   $0x85
    b14b:	e9 90 f7 ff ff       	jmp    a8e0 <_init+0x20>

000000000000b150 <swift_arrayDestroy@plt>:
    b150:	ff 25 da 62 03 00    	jmp    *0x362da(%rip)        # 41430 <swift_arrayDestroy>
    b156:	68 86 00 00 00       	push   $0x86
    b15b:	e9 80 f7 ff ff       	jmp    a8e0 <_init+0x20>

000000000000b160 <$sSy20FoundationEssentialsE10components11separatedBySaySSGqd___tSyRd__lF@plt>:
    b160:	ff 25 d2 62 03 00    	jmp    *0x362d2(%rip)        # 41438 <$sSy20FoundationEssentialsE10components11separatedBySaySSGqd___tSyRd__lF>
    b166:	68 87 00 00 00       	push   $0x87
    b16b:	e9 70 f7 ff ff       	jmp    a8e0 <_init+0x20>

000000000000b170 <$s10Foundation12CharacterSetV11whitespacesACvgZ@plt>:
    b170:	ff 25 ca 62 03 00    	jmp    *0x362ca(%rip)        # 41440 <$s10Foundation12CharacterSetV11whitespacesACvgZ>
    b176:	68 88 00 00 00       	push   $0x88
    b17b:	e9 60 f7 ff ff       	jmp    a8e0 <_init+0x20>

000000000000b180 <$sSy10FoundationE18trimmingCharacters2inSSAA12CharacterSetV_tF@plt>:
    b180:	ff 25 c2 62 03 00    	jmp    *0x362c2(%rip)        # 41448 <$sSy10FoundationE18trimmingCharacters2inSSAA12CharacterSetV_tF>
    b186:	68 89 00 00 00       	push   $0x89
    b18b:	e9 50 f7 ff ff       	jmp    a8e0 <_init+0x20>

000000000000b190 <$ss6HasherV8_combineyys6UInt32VF@plt>:
    b190:	ff 25 ba 62 03 00    	jmp    *0x362ba(%rip)        # 41450 <$ss6HasherV8_combineyys6UInt32VF>
    b196:	68 8a 00 00 00       	push   $0x8a
    b19b:	e9 40 f7 ff ff       	jmp    a8e0 <_init+0x20>

000000000000b1a0 <$sSd5write2toyxz_ts16TextOutputStreamRzlF@plt>:
    b1a0:	ff 25 b2 62 03 00    	jmp    *0x362b2(%rip)        # 41458 <$sSd5write2toyxz_ts16TextOutputStreamRzlF>
    b1a6:	68 8b 00 00 00       	push   $0x8b
    b1ab:	e9 30 f7 ff ff       	jmp    a8e0 <_init+0x20>

000000000000b1b0 <$ss8DurationV11descriptionSSvg@plt>:
    b1b0:	ff 25 aa 62 03 00    	jmp    *0x362aa(%rip)        # 41460 <$ss8DurationV11descriptionSSvg>
    b1b6:	68 8c 00 00 00       	push   $0x8c
    b1bb:	e9 20 f7 ff ff       	jmp    a8e0 <_init+0x20>

000000000000b1c0 <$ss15_print_unlockedyyx_q_zts16TextOutputStreamR_r0_lF@plt>:
    b1c0:	ff 25 a2 62 03 00    	jmp    *0x362a2(%rip)        # 41468 <$ss15_print_unlockedyyx_q_zts16TextOutputStreamR_r0_lF>
    b1c6:	68 8d 00 00 00       	push   $0x8d
    b1cb:	e9 10 f7 ff ff       	jmp    a8e0 <_init+0x20>

Disassembly of section .text:

000000000000b1d0 <_start>:
    b1d0:	f3 0f 1e fa          	endbr64
    b1d4:	31 ed                	xor    %ebp,%ebp
    b1d6:	49 89 d1             	mov    %rdx,%r9
    b1d9:	5e                   	pop    %rsi
    b1da:	48 89 e2             	mov    %rsp,%rdx
    b1dd:	48 83 e4 f0          	and    $0xfffffffffffffff0,%rsp
    b1e1:	50                   	push   %rax
    b1e2:	54                   	push   %rsp
    b1e3:	45 31 c0             	xor    %r8d,%r8d
    b1e6:	31 c9                	xor    %ecx,%ecx
    b1e8:	48 8d 3d 41 19 02 00 	lea    0x21941(%rip),%rdi        # 2cb30 <Game7Systems_main>
    b1ef:	ff 15 db 5c 03 00    	call   *0x35cdb(%rip)        # 40ed0 <__libc_start_main@GLIBC_2.34>
    b1f5:	f4                   	hlt
    b1f6:	66 2e 0f 1f 84 00 00 	cs nopw 0x0(%rax,%rax,1)
    b1fd:	00 00 00 

000000000000b200 <deregister_tm_clones>:
    b200:	48 8d 3d 69 62 03 00 	lea    0x36269(%rip),%rdi        # 41470 <__TMC_END__>
    b207:	48 8d 05 62 62 03 00 	lea    0x36262(%rip),%rax        # 41470 <__TMC_END__>
    b20e:	48 39 f8             	cmp    %rdi,%rax
    b211:	74 15                	je     b228 <deregister_tm_clones+0x28>
    b213:	48 8b 05 c6 5c 03 00 	mov    0x35cc6(%rip),%rax        # 40ee0 <_ITM_deregisterTMCloneTable>
    b21a:	48 85 c0             	test   %rax,%rax
    b21d:	74 09                	je     b228 <deregister_tm_clones+0x28>
    b21f:	ff e0                	jmp    *%rax
    b221:	0f 1f 80 00 00 00 00 	nopl   0x0(%rax)
    b228:	c3                   	ret
    b229:	0f 1f 80 00 00 00 00 	nopl   0x0(%rax)

000000000000b230 <register_tm_clones>:
    b230:	48 8d 3d 39 62 03 00 	lea    0x36239(%rip),%rdi        # 41470 <__TMC_END__>
    b237:	48 8d 35 32 62 03 00 	lea    0x36232(%rip),%rsi        # 41470 <__TMC_END__>
    b23e:	48 29 fe             	sub    %rdi,%rsi
    b241:	48 89 f0             	mov    %rsi,%rax
    b244:	48 c1 ee 3f          	shr    $0x3f,%rsi
    b248:	48 c1 f8 03          	sar    $0x3,%rax
    b24c:	48 01 c6             	add    %rax,%rsi
    b24f:	48 d1 fe             	sar    $1,%rsi
    b252:	74 14                	je     b268 <register_tm_clones+0x38>
    b254:	48 8b 05 8d 5c 03 00 	mov    0x35c8d(%rip),%rax        # 40ee8 <_ITM_registerTMCloneTable>
    b25b:	48 85 c0             	test   %rax,%rax
    b25e:	74 08                	je     b268 <register_tm_clones+0x38>
    b260:	ff e0                	jmp    *%rax
    b262:	66 0f 1f 44 00 00    	nopw   0x0(%rax,%rax,1)
    b268:	c3                   	ret
    b269:	0f 1f 80 00 00 00 00 	nopl   0x0(%rax)

000000000000b270 <__do_global_dtors_aux>:
    b270:	f3 0f 1e fa          	endbr64
    b274:	80 3d c5 9e 03 00 00 	cmpb   $0x0,0x39ec5(%rip)        # 45140 <completed.0>
    b27b:	75 2b                	jne    b2a8 <__do_global_dtors_aux+0x38>
    b27d:	55                   	push   %rbp
    b27e:	48 83 3d 6a 5c 03 00 	cmpq   $0x0,0x35c6a(%rip)        # 40ef0 <__cxa_finalize@GLIBC_2.2.5>
    b285:	00 
    b286:	48 89 e5             	mov    %rsp,%rbp
    b289:	74 0c                	je     b297 <__do_global_dtors_aux+0x27>
    b28b:	48 8b 3d de 61 03 00 	mov    0x361de(%rip),%rdi        # 41470 <__TMC_END__>
    b292:	e8 59 f6 ff ff       	call   a8f0 <__cxa_finalize@plt>
    b297:	e8 64 ff ff ff       	call   b200 <deregister_tm_clones>
    b29c:	c6 05 9d 9e 03 00 01 	movb   $0x1,0x39e9d(%rip)        # 45140 <completed.0>
    b2a3:	5d                   	pop    %rbp
    b2a4:	c3                   	ret
    b2a5:	0f 1f 00             	nopl   (%rax)
    b2a8:	c3                   	ret
    b2a9:	0f 1f 80 00 00 00 00 	nopl   0x0(%rax)

000000000000b2b0 <frame_dummy>:
    b2b0:	f3 0f 1e fa          	endbr64
    b2b4:	e9 77 ff ff ff       	jmp    b230 <register_tm_clones>
    b2b9:	0f 1f 80 00 00 00 00 	nopl   0x0(%rax)

000000000000b2c0 <swift_image_constructor()>:
    b2c0:	55                   	push   %rbp
    b2c1:	48 89 e5             	mov    %rsp,%rbp
    b2c4:	48 c7 05 79 9e 03 00 	movq   $0x4,0x39e79(%rip)        # 45148 <(anonymous namespace)::sections>
    b2cb:	04 00 00 00 
    b2cf:	48 8d 3d 72 9e 03 00 	lea    0x39e72(%rip),%rdi        # 45148 <(anonymous namespace)::sections>
    b2d6:	48 8d 05 93 61 03 00 	lea    0x36193(%rip),%rax        # 41470 <__TMC_END__>
    b2dd:	48 89 05 6c 9e 03 00 	mov    %rax,0x39e6c(%rip)        # 45150 <(anonymous namespace)::sections+0x8>
    b2e4:	48 c7 05 69 9e 03 00 	movq   $0x0,0x39e69(%rip)        # 45158 <(anonymous namespace)::sections+0x10>
    b2eb:	00 00 00 00 
    b2ef:	48 c7 05 66 9e 03 00 	movq   $0x0,0x39e66(%rip)        # 45160 <(anonymous namespace)::sections+0x18>
    b2f6:	00 00 00 00 
    b2fa:	48 8d 05 67 45 02 00 	lea    0x24567(%rip),%rax        # 2f868 <__start_swift5_protocols>
    b301:	48 89 05 60 9e 03 00 	mov    %rax,0x39e60(%rip)        # 45168 <(anonymous namespace)::sections+0x20>
    b308:	48 8d 0d 91 45 02 00 	lea    0x24591(%rip),%rcx        # 2f8a0 <__start_swift5_protocol_conformances>
    b30f:	48 29 c1             	sub    %rax,%rcx
    b312:	48 89 0d 57 9e 03 00 	mov    %rcx,0x39e57(%rip)        # 45170 <(anonymous namespace)::sections+0x28>
    b319:	48 8d 05 80 45 02 00 	lea    0x24580(%rip),%rax        # 2f8a0 <__start_swift5_protocol_conformances>
    b320:	48 89 05 51 9e 03 00 	mov    %rax,0x39e51(%rip)        # 45178 <(anonymous namespace)::sections+0x30>
    b327:	48 8d 0d aa 46 02 00 	lea    0x246aa(%rip),%rcx        # 2f9d8 <__start_swift5_type_metadata>
    b32e:	48 29 c1             	sub    %rax,%rcx
    b331:	48 89 0d 48 9e 03 00 	mov    %rcx,0x39e48(%rip)        # 45180 <(anonymous namespace)::sections+0x38>
    b338:	48 8d 05 99 46 02 00 	lea    0x24699(%rip),%rax        # 2f9d8 <__start_swift5_type_metadata>
    b33f:	48 89 05 42 9e 03 00 	mov    %rax,0x39e42(%rip)        # 45188 <(anonymous namespace)::sections+0x40>
    b346:	48 8d 0d 8f 47 02 00 	lea    0x2478f(%rip),%rcx        # 2fadc <$s7ECScore14ArenaAllocatorCMF>
    b34d:	48 29 c1             	sub    %rax,%rcx
    b350:	48 89 0d 39 9e 03 00 	mov    %rcx,0x39e39(%rip)        # 45190 <(anonymous namespace)::sections+0x48>
    b357:	48 8d 05 b0 5b 02 00 	lea    0x25bb0(%rip),%rax        # 30f0e <symbolic _____ 7ECScore14ArenaAllocatorC>
    b35e:	48 89 05 33 9e 03 00 	mov    %rax,0x39e33(%rip)        # 45198 <(anonymous namespace)::sections+0x50>
    b365:	48 8d 0d c7 6c 02 00 	lea    0x26cc7(%rip),%rcx        # 32033 <__start_swift5_accessible_functions>
    b36c:	48 29 c1             	sub    %rax,%rcx
    b36f:	48 89 0d 2a 9e 03 00 	mov    %rcx,0x39e2a(%rip)        # 451a0 <(anonymous namespace)::sections+0x58>
    b376:	48 8d 05 43 56 02 00 	lea    0x25643(%rip),%rax        # 309c0 <__start_swift5_reflstr>
    b37d:	48 89 05 24 9e 03 00 	mov    %rax,0x39e24(%rip)        # 451a8 <(anonymous namespace)::sections+0x60>
    b384:	48 8d 0d 83 5b 02 00 	lea    0x25b83(%rip),%rcx        # 30f0e <symbolic _____ 7ECScore14ArenaAllocatorC>
    b38b:	48 29 c1             	sub    %rax,%rcx
    b38e:	48 89 0d 1b 9e 03 00 	mov    %rcx,0x39e1b(%rip)        # 451b0 <(anonymous namespace)::sections+0x68>
    b395:	48 8d 05 40 47 02 00 	lea    0x24740(%rip),%rax        # 2fadc <$s7ECScore14ArenaAllocatorCMF>
    b39c:	48 89 05 15 9e 03 00 	mov    %rax,0x39e15(%rip)        # 451b8 <(anonymous namespace)::sections+0x70>
    b3a3:	48 8d 0d 1e 53 02 00 	lea    0x2531e(%rip),%rcx        # 306c8 <$s7ECScore20PlatformReservedSlotOSYAAMA>
    b3aa:	48 29 c1             	sub    %rax,%rcx
    b3ad:	48 89 0d 0c 9e 03 00 	mov    %rcx,0x39e0c(%rip)        # 451c0 <(anonymous namespace)::sections+0x78>
    b3b4:	48 8d 05 0d 53 02 00 	lea    0x2530d(%rip),%rax        # 306c8 <$s7ECScore20PlatformReservedSlotOSYAAMA>
    b3bb:	48 89 05 06 9e 03 00 	mov    %rax,0x39e06(%rip)        # 451c8 <(anonymous namespace)::sections+0x80>
    b3c2:	48 8d 0d cf 55 02 00 	lea    0x255cf(%rip),%rcx        # 30998 <l__swift5_reflection_descriptor>
    b3c9:	48 29 c1             	sub    %rax,%rcx
    b3cc:	48 89 0d fd 9d 03 00 	mov    %rcx,0x39dfd(%rip)        # 451d0 <(anonymous namespace)::sections+0x88>
    b3d3:	48 8d 05 59 6c 02 00 	lea    0x26c59(%rip),%rax        # 32033 <__start_swift5_accessible_functions>
    b3da:	48 89 05 f7 9d 03 00 	mov    %rax,0x39df7(%rip)        # 451d8 <(anonymous namespace)::sections+0x90>
    b3e1:	48 8d 0d 4b 6c 02 00 	lea    0x26c4b(%rip),%rcx        # 32033 <__start_swift5_accessible_functions>
    b3e8:	48 29 c1             	sub    %rax,%rcx
    b3eb:	48 89 0d ee 9d 03 00 	mov    %rcx,0x39dee(%rip)        # 451e0 <(anonymous namespace)::sections+0x98>
    b3f2:	48 8d 05 3a 6c 02 00 	lea    0x26c3a(%rip),%rax        # 32033 <__start_swift5_accessible_functions>
    b3f9:	48 89 05 e8 9d 03 00 	mov    %rax,0x39de8(%rip)        # 451e8 <(anonymous namespace)::sections+0xa0>
    b400:	48 8d 0d 2c 6c 02 00 	lea    0x26c2c(%rip),%rcx        # 32033 <__start_swift5_accessible_functions>
    b407:	48 29 c1             	sub    %rax,%rcx
    b40a:	48 89 0d df 9d 03 00 	mov    %rcx,0x39ddf(%rip)        # 451f0 <(anonymous namespace)::sections+0xa8>
    b411:	48 8d 05 b0 52 02 00 	lea    0x252b0(%rip),%rax        # 306c8 <$s7ECScore20PlatformReservedSlotOSYAAMA>
    b418:	48 89 05 d9 9d 03 00 	mov    %rax,0x39dd9(%rip)        # 451f8 <(anonymous namespace)::sections+0xb0>
    b41f:	48 8d 0d a2 52 02 00 	lea    0x252a2(%rip),%rcx        # 306c8 <$s7ECScore20PlatformReservedSlotOSYAAMA>
    b426:	48 29 c1             	sub    %rax,%rcx
    b429:	48 89 0d d0 9d 03 00 	mov    %rcx,0x39dd0(%rip)        # 45200 <(anonymous namespace)::sections+0xb8>
    b430:	48 8d 05 61 55 02 00 	lea    0x25561(%rip),%rax        # 30998 <l__swift5_reflection_descriptor>
    b437:	48 89 05 ca 9d 03 00 	mov    %rax,0x39dca(%rip)        # 45208 <(anonymous namespace)::sections+0xc0>
    b43e:	48 8d 0d 73 55 02 00 	lea    0x25573(%rip),%rcx        # 309b8 <__stop_swift5_capture>
    b445:	48 29 c1             	sub    %rax,%rcx
    b448:	48 89 0d c1 9d 03 00 	mov    %rcx,0x39dc1(%rip)        # 45210 <(anonymous namespace)::sections+0xc8>
    b44f:	48 8d 05 dd 6b 02 00 	lea    0x26bdd(%rip),%rax        # 32033 <__start_swift5_accessible_functions>
    b456:	48 89 05 bb 9d 03 00 	mov    %rax,0x39dbb(%rip)        # 45218 <(anonymous namespace)::sections+0xd0>
    b45d:	48 8d 0d cf 6b 02 00 	lea    0x26bcf(%rip),%rcx        # 32033 <__start_swift5_accessible_functions>
    b464:	48 29 c1             	sub    %rax,%rcx
    b467:	48 89 0d b2 9d 03 00 	mov    %rcx,0x39db2(%rip)        # 45220 <(anonymous namespace)::sections+0xd8>
    b46e:	48 8d 05 be 6b 02 00 	lea    0x26bbe(%rip),%rax        # 32033 <__start_swift5_accessible_functions>
    b475:	48 89 05 ac 9d 03 00 	mov    %rax,0x39dac(%rip)        # 45228 <(anonymous namespace)::sections+0xe0>
    b47c:	48 8d 0d b0 6b 02 00 	lea    0x26bb0(%rip),%rcx        # 32033 <__start_swift5_accessible_functions>
    b483:	48 29 c1             	sub    %rax,%rcx
    b486:	48 89 0d a3 9d 03 00 	mov    %rcx,0x39da3(%rip)        # 45230 <(anonymous namespace)::sections+0xe8>
    b48d:	48 8d 05 9f 6b 02 00 	lea    0x26b9f(%rip),%rax        # 32033 <__start_swift5_accessible_functions>
    b494:	48 89 05 9d 9d 03 00 	mov    %rax,0x39d9d(%rip)        # 45238 <(anonymous namespace)::sections+0xf0>
    b49b:	48 8d 0d 91 6b 02 00 	lea    0x26b91(%rip),%rcx        # 32033 <__start_swift5_accessible_functions>
    b4a2:	48 29 c1             	sub    %rax,%rcx
    b4a5:	48 89 0d 94 9d 03 00 	mov    %rcx,0x39d94(%rip)        # 45240 <(anonymous namespace)::sections+0xf8>
    b4ac:	48 8d 05 80 6b 02 00 	lea    0x26b80(%rip),%rax        # 32033 <__start_swift5_accessible_functions>
    b4b3:	48 89 05 8e 9d 03 00 	mov    %rax,0x39d8e(%rip)        # 45248 <(anonymous namespace)::sections+0x100>
    b4ba:	48 8d 0d 72 6b 02 00 	lea    0x26b72(%rip),%rcx        # 32033 <__start_swift5_accessible_functions>
    b4c1:	48 29 c1             	sub    %rax,%rcx
    b4c4:	48 89 0d 85 9d 03 00 	mov    %rcx,0x39d85(%rip)        # 45250 <(anonymous namespace)::sections+0x108>
    b4cb:	5d                   	pop    %rbp
    b4cc:	e9 2f f4 ff ff       	jmp    a900 <swift_addNewDSOImage@plt>
    b4d1:	66 66 66 66 66 66 2e 	data16 data16 data16 data16 data16 cs nopw 0x0(%rax,%rax,1)
    b4d8:	0f 1f 84 00 00 00 00 
    b4df:	00 

000000000000b4e0 <$s7ECScore14ArenaAllocatorCfD>:
    b4e0:	55                   	push   %rbp
    b4e1:	48 89 e5             	mov    %rsp,%rbp
    b4e4:	49 8b 7d 10          	mov    0x10(%r13),%rdi
    b4e8:	48 c7 c6 ff ff ff ff 	mov    $0xffffffffffffffff,%rsi
    b4ef:	48 c7 c2 ff ff ff ff 	mov    $0xffffffffffffffff,%rdx
    b4f6:	e8 15 f4 ff ff       	call   a910 <swift_slowDealloc@plt>
    b4fb:	be 28 00 00 00       	mov    $0x28,%esi
    b500:	ba 07 00 00 00       	mov    $0x7,%edx
    b505:	4c 89 ef             	mov    %r13,%rdi
    b508:	5d                   	pop    %rbp
    b509:	e9 12 f4 ff ff       	jmp    a920 <swift_deallocClassInstance@plt>
    b50e:	66 90                	xchg   %ax,%ax

000000000000b510 <$s7ECScore14ArenaAllocatorCMa>:
    b510:	48 8d 05 81 5f 03 00 	lea    0x35f81(%rip),%rax        # 41498 <$s7ECScore14ArenaAllocatorCN>
    b517:	31 d2                	xor    %edx,%edx
    b519:	c3                   	ret
    b51a:	66 0f 1f 44 00 00    	nopw   0x0(%rax,%rax,1)

000000000000b520 <$s7ECScore8CommandsCMr>:
    b520:	55                   	push   %rbp
    b521:	48 89 e5             	mov    %rsp,%rbp
    b524:	48 83 ec 20          	sub    $0x20,%rsp
    b528:	4c 8d 47 40          	lea    0x40(%rdi),%r8
    b52c:	48 8d 05 ad 6c 03 00 	lea    0x36cad(%rip),%rax        # 421e0 <$s7ECScore8CommandsCACyxGycfCTq+0xc>
    b533:	48 89 45 e8          	mov    %rax,-0x18(%rbp)
    b537:	48 8b 05 ba 59 03 00 	mov    0x359ba(%rip),%rax        # 40ef8 <$sBoWV>
    b53e:	48 83 c0 40          	add    $0x40,%rax
    b542:	48 89 45 f0          	mov    %rax,-0x10(%rbp)
    b546:	48 8b 05 b3 59 03 00 	mov    0x359b3(%rip),%rax        # 40f00 <$sBi64_WV>
    b54d:	48 83 c0 40          	add    $0x40,%rax
    b551:	48 89 45 f8          	mov    %rax,-0x8(%rbp)
    b555:	48 8d 4d e8          	lea    -0x18(%rbp),%rcx
    b559:	ba 03 00 00 00       	mov    $0x3,%edx
    b55e:	31 f6                	xor    %esi,%esi
    b560:	e8 cb f3 ff ff       	call   a930 <swift_initClassMetadata2@plt>
    b565:	48 85 c0             	test   %rax,%rax
    b568:	75 02                	jne    b56c <$s7ECScore8CommandsCMr+0x4c>
    b56a:	31 d2                	xor    %edx,%edx
    b56c:	48 83 c4 20          	add    $0x20,%rsp
    b570:	5d                   	pop    %rbp
    b571:	c3                   	ret
    b572:	66 66 66 66 66 2e 0f 	data16 data16 data16 data16 cs nopw 0x0(%rax,%rax,1)
    b579:	1f 84 00 00 00 00 00 

000000000000b580 <$s7ECScore8CommandsCfd>:
    b580:	55                   	push   %rbp
    b581:	48 89 e5             	mov    %rsp,%rbp
    b584:	49 8b 7d 30          	mov    0x30(%r13),%rdi
    b588:	e8 b3 f3 ff ff       	call   a940 <swift_release@plt>
    b58d:	4c 89 e8             	mov    %r13,%rax
    b590:	5d                   	pop    %rbp
    b591:	c3                   	ret
    b592:	66 66 66 66 66 2e 0f 	data16 data16 data16 data16 cs nopw 0x0(%rax,%rax,1)
    b599:	1f 84 00 00 00 00 00 

000000000000b5a0 <$s7ECScore8CommandsCfD>:
    b5a0:	55                   	push   %rbp
    b5a1:	48 89 e5             	mov    %rsp,%rbp
    b5a4:	49 8b 7d 30          	mov    0x30(%r13),%rdi
    b5a8:	e8 93 f3 ff ff       	call   a940 <swift_release@plt>
    b5ad:	be 40 00 00 00       	mov    $0x40,%esi
    b5b2:	ba 07 00 00 00       	mov    $0x7,%edx
    b5b7:	4c 89 ef             	mov    %r13,%rdi
    b5ba:	5d                   	pop    %rbp
    b5bb:	e9 60 f3 ff ff       	jmp    a920 <swift_deallocClassInstance@plt>

000000000000b5c0 <$s7ECScore8CommandsCMa>:
    b5c0:	4c 8d 05 c5 6b 03 00 	lea    0x36bc5(%rip),%r8        # 4218c <$s7ECScore8CommandsCMn>
    b5c7:	e9 84 02 00 00       	jmp    b850 <__swift_instantiateGenericMetadata>
    b5cc:	0f 1f 40 00          	nopl   0x0(%rax)
    b5d0:	55                   	push   %rbp
    b5d1:	48 89 e5             	mov    %rsp,%rbp
    b5d4:	48 8b 05 2d 59 03 00 	mov    0x3592d(%rip),%rax        # 40f08 <$sytN>
    b5db:	48 83 c0 08          	add    $0x8,%rax
    b5df:	5d                   	pop    %rbp
    b5e0:	c3                   	ret
    b5e1:	66 66 66 66 66 66 2e 	data16 data16 data16 data16 data16 cs nopw 0x0(%rax,%rax,1)
    b5e8:	0f 1f 84 00 00 00 00 
    b5ef:	00 
    b5f0:	e9 5b f3 ff ff       	jmp    a950 <swift_allocateGenericClassMetadata@plt>
    b5f5:	66 66 2e 0f 1f 84 00 	data16 cs nopw 0x0(%rax,%rax,1)
    b5fc:	00 00 00 00 

000000000000b600 <$s7ECScore14PageNodeHandleCMr>:
    b600:	55                   	push   %rbp
    b601:	48 89 e5             	mov    %rsp,%rbp
    b604:	48 83 ec 10          	sub    $0x10,%rsp
    b608:	4c 8d 47 40          	lea    0x40(%rdi),%r8
    b60c:	48 8d 05 9d 6c 03 00 	lea    0x36c9d(%rip),%rax        # 422b0 <$s7ECScore14PageNodeHandleCACyxGycfCTq+0x8>
    b613:	48 89 45 f8          	mov    %rax,-0x8(%rbp)
    b617:	48 8d 4d f8          	lea    -0x8(%rbp),%rcx
    b61b:	ba 01 00 00 00       	mov    $0x1,%edx
    b620:	31 f6                	xor    %esi,%esi
    b622:	e8 09 f3 ff ff       	call   a930 <swift_initClassMetadata2@plt>
    b627:	48 85 c0             	test   %rax,%rax
    b62a:	75 02                	jne    b62e <$s7ECScore14PageNodeHandleCMr+0x2e>
    b62c:	31 d2                	xor    %edx,%edx
    b62e:	48 83 c4 10          	add    $0x10,%rsp
    b632:	5d                   	pop    %rbp
    b633:	c3                   	ret
    b634:	66 66 66 2e 0f 1f 84 	data16 data16 cs nopw 0x0(%rax,%rax,1)
    b63b:	00 00 00 00 00 

000000000000b640 <$s7ECScore14PageNodeHandleCfd>:
    b640:	55                   	push   %rbp
    b641:	48 89 e5             	mov    %rsp,%rbp
    b644:	49 8b 7d 10          	mov    0x10(%r13),%rdi
    b648:	e8 f3 f2 ff ff       	call   a940 <swift_release@plt>
    b64d:	4c 89 e8             	mov    %r13,%rax
    b650:	5d                   	pop    %rbp
    b651:	c3                   	ret
    b652:	66 66 66 66 66 2e 0f 	data16 data16 data16 data16 cs nopw 0x0(%rax,%rax,1)
    b659:	1f 84 00 00 00 00 00 

000000000000b660 <$s7ECScore14PageNodeHandleCfD>:
    b660:	55                   	push   %rbp
    b661:	48 89 e5             	mov    %rsp,%rbp
    b664:	49 8b 7d 10          	mov    0x10(%r13),%rdi
    b668:	e8 d3 f2 ff ff       	call   a940 <swift_release@plt>
    b66d:	be 18 00 00 00       	mov    $0x18,%esi
    b672:	ba 07 00 00 00       	mov    $0x7,%edx
    b677:	4c 89 ef             	mov    %r13,%rdi
    b67a:	5d                   	pop    %rbp
    b67b:	e9 a0 f2 ff ff       	jmp    a920 <swift_deallocClassInstance@plt>

000000000000b680 <$s7ECScore14PageNodeHandleCMa>:
    b680:	4c 8d 05 a1 6b 03 00 	lea    0x36ba1(%rip),%r8        # 42228 <$s7ECScore14PageNodeHandleCMn>
    b687:	e9 c4 01 00 00       	jmp    b850 <__swift_instantiateGenericMetadata>
    b68c:	0f 1f 40 00          	nopl   0x0(%rax)
    b690:	55                   	push   %rbp
    b691:	48 89 e5             	mov    %rsp,%rbp
    b694:	48 8b 05 6d 58 03 00 	mov    0x3586d(%rip),%rax        # 40f08 <$sytN>
    b69b:	48 83 c0 08          	add    $0x8,%rax
    b69f:	5d                   	pop    %rbp
    b6a0:	c3                   	ret
    b6a1:	66 66 66 66 66 66 2e 	data16 data16 data16 data16 data16 cs nopw 0x0(%rax,%rax,1)
    b6a8:	0f 1f 84 00 00 00 00 
    b6af:	00 

000000000000b6b0 <$s7ECScore8PageNodeVMi>:
    b6b0:	b9 10 00 00 00       	mov    $0x10,%ecx
    b6b5:	e9 a6 f2 ff ff       	jmp    a960 <swift_allocateGenericValueMetadata@plt>
    b6ba:	66 0f 1f 44 00 00    	nopw   0x0(%rax,%rax,1)

000000000000b6c0 <__swift_cannot_copy_noncopyable_type>:
    b6c0:	55                   	push   %rbp
    b6c1:	48 89 e5             	mov    %rsp,%rbp
    b6c4:	0f 0b                	ud2
    b6c6:	66 2e 0f 1f 84 00 00 	cs nopw 0x0(%rax,%rax,1)
    b6cd:	00 00 00 

000000000000b6d0 <$s7ECScore8PageNodeVwxx>:
    b6d0:	55                   	push   %rbp
    b6d1:	48 89 e5             	mov    %rsp,%rbp
    b6d4:	48 8b 3f             	mov    (%rdi),%rdi
    b6d7:	5d                   	pop    %rbp
    b6d8:	e9 63 f2 ff ff       	jmp    a940 <swift_release@plt>
    b6dd:	0f 1f 00             	nopl   (%rax)

000000000000b6e0 <__swift_memcpy8_8>:
    b6e0:	55                   	push   %rbp
    b6e1:	48 89 e5             	mov    %rsp,%rbp
    b6e4:	48 89 f8             	mov    %rdi,%rax
    b6e7:	48 8b 0e             	mov    (%rsi),%rcx
    b6ea:	48 89 0f             	mov    %rcx,(%rdi)
    b6ed:	5d                   	pop    %rbp
    b6ee:	c3                   	ret
    b6ef:	90                   	nop

000000000000b6f0 <$s7ECScore8PageNodeVwta>:
    b6f0:	55                   	push   %rbp
    b6f1:	48 89 e5             	mov    %rsp,%rbp
    b6f4:	53                   	push   %rbx
    b6f5:	50                   	push   %rax
    b6f6:	48 89 fb             	mov    %rdi,%rbx
    b6f9:	48 8b 06             	mov    (%rsi),%rax
    b6fc:	48 8b 3f             	mov    (%rdi),%rdi
    b6ff:	48 89 03             	mov    %rax,(%rbx)
    b702:	e8 39 f2 ff ff       	call   a940 <swift_release@plt>
    b707:	48 89 d8             	mov    %rbx,%rax
    b70a:	48 83 c4 08          	add    $0x8,%rsp
    b70e:	5b                   	pop    %rbx
    b70f:	5d                   	pop    %rbp
    b710:	c3                   	ret
    b711:	66 66 66 66 66 66 2e 	data16 data16 data16 data16 data16 cs nopw 0x0(%rax,%rax,1)
    b718:	0f 1f 84 00 00 00 00 
    b71f:	00 

000000000000b720 <$s7ECScore8PageNodeVwet>:
    b720:	55                   	push   %rbp
    b721:	48 89 e5             	mov    %rsp,%rbp
    b724:	85 f6                	test   %esi,%esi
    b726:	74 2b                	je     b753 <$s7ECScore8PageNodeVwet+0x33>
    b728:	81 fe 01 10 00 00    	cmp    $0x1001,%esi
    b72e:	72 0f                	jb     b73f <$s7ECScore8PageNodeVwet+0x1f>
    b730:	80 7f 08 00          	cmpb   $0x0,0x8(%rdi)
    b734:	74 09                	je     b73f <$s7ECScore8PageNodeVwet+0x1f>
    b736:	b8 00 10 00 00       	mov    $0x1000,%eax
    b73b:	03 07                	add    (%rdi),%eax
    b73d:	eb 19                	jmp    b758 <$s7ECScore8PageNodeVwet+0x38>
    b73f:	48 8b 0f             	mov    (%rdi),%rcx
    b742:	48 81 f9 00 10 00 00 	cmp    $0x1000,%rcx
    b749:	b8 ff ff ff ff       	mov    $0xffffffff,%eax
    b74e:	0f 42 c1             	cmovb  %ecx,%eax
    b751:	eb 05                	jmp    b758 <$s7ECScore8PageNodeVwet+0x38>
    b753:	b8 ff ff ff ff       	mov    $0xffffffff,%eax
    b758:	ff c0                	inc    %eax
    b75a:	5d                   	pop    %rbp
    b75b:	c3                   	ret
    b75c:	0f 1f 40 00          	nopl   0x0(%rax)

000000000000b760 <$s7ECScore8PageNodeVwst>:
    b760:	55                   	push   %rbp
    b761:	48 89 e5             	mov    %rsp,%rbp
    b764:	81 fe 00 10 00 00    	cmp    $0x1000,%esi
    b76a:	77 17                	ja     b783 <$s7ECScore8PageNodeVwst+0x23>
    b76c:	81 fa 01 10 00 00    	cmp    $0x1001,%edx
    b772:	72 04                	jb     b778 <$s7ECScore8PageNodeVwst+0x18>
    b774:	c6 47 08 00          	movb   $0x0,0x8(%rdi)
    b778:	85 f6                	test   %esi,%esi
    b77a:	74 1c                	je     b798 <$s7ECScore8PageNodeVwst+0x38>
    b77c:	ff ce                	dec    %esi
    b77e:	48 89 37             	mov    %rsi,(%rdi)
    b781:	5d                   	pop    %rbp
    b782:	c3                   	ret
    b783:	81 c6 ff ef ff ff    	add    $0xffffefff,%esi
    b789:	48 89 37             	mov    %rsi,(%rdi)
    b78c:	81 fa 01 10 00 00    	cmp    $0x1001,%edx
    b792:	72 04                	jb     b798 <$s7ECScore8PageNodeVwst+0x38>
    b794:	c6 47 08 01          	movb   $0x1,0x8(%rdi)
    b798:	5d                   	pop    %rbp
    b799:	c3                   	ret
    b79a:	66 0f 1f 44 00 00    	nopw   0x0(%rax,%rax,1)

000000000000b7a0 <$s7ECScore8PageNodeVMa>:
    b7a0:	4c 8d 05 55 6b 03 00 	lea    0x36b55(%rip),%r8        # 422fc <$s7ECScore8PageNodeVMn>
    b7a7:	e9 a4 00 00 00       	jmp    b850 <__swift_instantiateGenericMetadata>
    b7ac:	0f 1f 40 00          	nopl   0x0(%rax)

000000000000b7b0 <$s7ECScore10PageHeaderVMi>:
    b7b0:	b9 18 00 00 00       	mov    $0x18,%ecx
    b7b5:	e9 a6 f1 ff ff       	jmp    a960 <swift_allocateGenericValueMetadata@plt>
    b7ba:	66 0f 1f 44 00 00    	nopw   0x0(%rax,%rax,1)

000000000000b7c0 <__swift_noop_void_return>:
    b7c0:	55                   	push   %rbp
    b7c1:	48 89 e5             	mov    %rsp,%rbp
    b7c4:	5d                   	pop    %rbp
    b7c5:	c3                   	ret
    b7c6:	66 2e 0f 1f 84 00 00 	cs nopw 0x0(%rax,%rax,1)
    b7cd:	00 00 00 

000000000000b7d0 <__swift_memcpy32_8>:
    b7d0:	55                   	push   %rbp
    b7d1:	48 89 e5             	mov    %rsp,%rbp
    b7d4:	48 89 f8             	mov    %rdi,%rax
    b7d7:	0f 10 06             	movups (%rsi),%xmm0
    b7da:	0f 10 4e 10          	movups 0x10(%rsi),%xmm1
    b7de:	0f 11 4f 10          	movups %xmm1,0x10(%rdi)
    b7e2:	0f 11 07             	movups %xmm0,(%rdi)
    b7e5:	5d                   	pop    %rbp
    b7e6:	c3                   	ret
    b7e7:	66 0f 1f 84 00 00 00 	nopw   0x0(%rax,%rax,1)
    b7ee:	00 00 

000000000000b7f0 <$s7ECScore10PageHeaderVwet>:
    b7f0:	55                   	push   %rbp
    b7f1:	48 89 e5             	mov    %rsp,%rbp
    b7f4:	31 c0                	xor    %eax,%eax
    b7f6:	85 f6                	test   %esi,%esi
    b7f8:	74 0a                	je     b804 <$s7ECScore10PageHeaderVwet+0x14>
    b7fa:	80 7f 20 00          	cmpb   $0x0,0x20(%rdi)
    b7fe:	74 04                	je     b804 <$s7ECScore10PageHeaderVwet+0x14>
    b800:	8b 07                	mov    (%rdi),%eax
    b802:	ff c0                	inc    %eax
    b804:	5d                   	pop    %rbp
    b805:	c3                   	ret
    b806:	66 2e 0f 1f 84 00 00 	cs nopw 0x0(%rax,%rax,1)
    b80d:	00 00 00 

000000000000b810 <$s7ECScore10PageHeaderVwst>:
    b810:	55                   	push   %rbp
    b811:	48 89 e5             	mov    %rsp,%rbp
    b814:	85 f6                	test   %esi,%esi
    b816:	74 1c                	je     b834 <$s7ECScore10PageHeaderVwst+0x24>
    b818:	ff ce                	dec    %esi
    b81a:	0f 57 c0             	xorps  %xmm0,%xmm0
    b81d:	0f 11 47 08          	movups %xmm0,0x8(%rdi)
    b821:	48 89 37             	mov    %rsi,(%rdi)
    b824:	48 c7 47 18 00 00 00 	movq   $0x0,0x18(%rdi)
    b82b:	00 
    b82c:	b0 01                	mov    $0x1,%al
    b82e:	85 d2                	test   %edx,%edx
    b830:	75 08                	jne    b83a <$s7ECScore10PageHeaderVwst+0x2a>
    b832:	5d                   	pop    %rbp
    b833:	c3                   	ret
    b834:	85 d2                	test   %edx,%edx
    b836:	74 fa                	je     b832 <$s7ECScore10PageHeaderVwst+0x22>
    b838:	31 c0                	xor    %eax,%eax
    b83a:	88 47 20             	mov    %al,0x20(%rdi)
    b83d:	5d                   	pop    %rbp
    b83e:	c3                   	ret
    b83f:	90                   	nop

000000000000b840 <$s7ECScore10PageHeaderVMa>:
    b840:	4c 8d 05 1d 6b 03 00 	lea    0x36b1d(%rip),%r8        # 42364 <$s7ECScore10PageHeaderVMn>
    b847:	e9 04 00 00 00       	jmp    b850 <__swift_instantiateGenericMetadata>
    b84c:	0f 1f 40 00          	nopl   0x0(%rax)

000000000000b850 <__swift_instantiateGenericMetadata>:
    b850:	55                   	push   %rbp
    b851:	48 89 e5             	mov    %rsp,%rbp
    b854:	48 83 ec 20          	sub    $0x20,%rsp
    b858:	48 89 75 e8          	mov    %rsi,-0x18(%rbp)
    b85c:	48 89 55 f0          	mov    %rdx,-0x10(%rbp)
    b860:	48 89 4d f8          	mov    %rcx,-0x8(%rbp)
    b864:	48 8d 75 e8          	lea    -0x18(%rbp),%rsi
    b868:	4c 89 c2             	mov    %r8,%rdx
    b86b:	e8 00 f1 ff ff       	call   a970 <swift_getGenericMetadata@plt>
    b870:	48 83 c4 20          	add    $0x20,%rsp
    b874:	5d                   	pop    %rbp
    b875:	c3                   	ret
    b876:	66 2e 0f 1f 84 00 00 	cs nopw 0x0(%rax,%rax,1)
    b87d:	00 00 00 

000000000000b880 <$s7ECScore8CommandsCMi>:
    b880:	e9 6b fd ff ff       	jmp    b5f0 <$s7ECScore8CommandsCMa+0x30>
    b885:	66 66 2e 0f 1f 84 00 	data16 cs nopw 0x0(%rax,%rax,1)
    b88c:	00 00 00 00 

000000000000b890 <$s7ECScore14PageNodeHandleCMi>:
    b890:	e9 5b fd ff ff       	jmp    b5f0 <$s7ECScore8CommandsCMa+0x30>
    b895:	66 66 2e 0f 1f 84 00 	data16 cs nopw 0x0(%rax,%rax,1)
    b89c:	00 00 00 00 

000000000000b8a0 <$s7ECScore12BasePlatformC8storagesSayAA03AnyC7Storage_pSgGvM.resume.0>:
    b8a0:	55                   	push   %rbp
    b8a1:	48 89 e5             	mov    %rsp,%rbp
    b8a4:	5d                   	pop    %rbp
    b8a5:	e9 d6 f0 ff ff       	jmp    a980 <swift_endAccess@plt>
    b8aa:	66 0f 1f 44 00 00    	nopw   0x0(%rax,%rax,1)

000000000000b8b0 <$s7ECScore17BasePlatformErrorOSQAASQ2eeoiySbx_xtFZTW>:
    b8b0:	55                   	push   %rbp
    b8b1:	48 89 e5             	mov    %rsp,%rbp
    b8b4:	b0 01                	mov    $0x1,%al
    b8b6:	5d                   	pop    %rbp
    b8b7:	c3                   	ret
    b8b8:	0f 1f 84 00 00 00 00 	nopl   0x0(%rax,%rax,1)
    b8bf:	00 

000000000000b8c0 <$s7ECScore17BasePlatformErrorOSHAASH9hashValueSivgTW>:
    b8c0:	55                   	push   %rbp
    b8c1:	48 89 e5             	mov    %rsp,%rbp
    b8c4:	41 55                	push   %r13
    b8c6:	48 83 ec 48          	sub    $0x48,%rsp
    b8ca:	4c 8d 6d b0          	lea    -0x50(%rbp),%r13
    b8ce:	4c 89 e8             	mov    %r13,%rax
    b8d1:	31 ff                	xor    %edi,%edi
    b8d3:	e8 b8 f0 ff ff       	call   a990 <$ss6HasherV5_seedABSi_tcfC@plt>
    b8d8:	31 ff                	xor    %edi,%edi
    b8da:	e8 c1 f0 ff ff       	call   a9a0 <$ss6HasherV8_combineyySuF@plt>
    b8df:	e8 cc f0 ff ff       	call   a9b0 <$ss6HasherV9_finalizeSiyF@plt>
    b8e4:	48 83 c4 48          	add    $0x48,%rsp
    b8e8:	41 5d                	pop    %r13
    b8ea:	5d                   	pop    %rbp
    b8eb:	c3                   	ret
    b8ec:	0f 1f 40 00          	nopl   0x0(%rax)

000000000000b8f0 <$s7ECScore17BasePlatformErrorOSHAASH4hash4intoys6HasherVz_tFTW>:
    b8f0:	55                   	push   %rbp
    b8f1:	48 89 e5             	mov    %rsp,%rbp
    b8f4:	41 55                	push   %r13
    b8f6:	50                   	push   %rax
    b8f7:	49 89 fd             	mov    %rdi,%r13
    b8fa:	31 ff                	xor    %edi,%edi
    b8fc:	e8 9f f0 ff ff       	call   a9a0 <$ss6HasherV8_combineyySuF@plt>
    b901:	48 83 c4 08          	add    $0x8,%rsp
    b905:	41 5d                	pop    %r13
    b907:	5d                   	pop    %rbp
    b908:	c3                   	ret
    b909:	0f 1f 80 00 00 00 00 	nopl   0x0(%rax)

000000000000b910 <$s7ECScore17BasePlatformErrorOSHAASH13_rawHashValue4seedS2i_tFTW>:
    b910:	55                   	push   %rbp
    b911:	48 89 e5             	mov    %rsp,%rbp
    b914:	41 55                	push   %r13
    b916:	48 83 ec 48          	sub    $0x48,%rsp
    b91a:	4c 8d 6d b0          	lea    -0x50(%rbp),%r13
    b91e:	4c 89 e8             	mov    %r13,%rax
    b921:	e8 6a f0 ff ff       	call   a990 <$ss6HasherV5_seedABSi_tcfC@plt>
    b926:	31 ff                	xor    %edi,%edi
    b928:	e8 73 f0 ff ff       	call   a9a0 <$ss6HasherV8_combineyySuF@plt>
    b92d:	e8 7e f0 ff ff       	call   a9b0 <$ss6HasherV9_finalizeSiyF@plt>
    b932:	48 83 c4 48          	add    $0x48,%rsp
    b936:	41 5d                	pop    %r13
    b938:	5d                   	pop    %rbp
    b939:	c3                   	ret
    b93a:	66 0f 1f 44 00 00    	nopw   0x0(%rax,%rax,1)

000000000000b940 <$s7ECScore17BasePlatformErrorOSHAASQWb>:
    b940:	55                   	push   %rbp
    b941:	48 89 e5             	mov    %rsp,%rbp
    b944:	5d                   	pop    %rbp
    b945:	e9 06 00 00 00       	jmp    b950 <$s7ECScore17BasePlatformErrorOACSQAAWl>
    b94a:	66 0f 1f 44 00 00    	nopw   0x0(%rax,%rax,1)

000000000000b950 <$s7ECScore17BasePlatformErrorOACSQAAWl>:
    b950:	48 8b 05 89 9b 03 00 	mov    0x39b89(%rip),%rax        # 454e0 <$s7ECScore17BasePlatformErrorOACSQAAWL>
    b957:	48 85 c0             	test   %rax,%rax
    b95a:	74 01                	je     b95d <$s7ECScore17BasePlatformErrorOACSQAAWl+0xd>
    b95c:	c3                   	ret
    b95d:	55                   	push   %rbp
    b95e:	48 89 e5             	mov    %rsp,%rbp
    b961:	48 8d 3d cc 6a 03 00 	lea    0x36acc(%rip),%rdi        # 42434 <$s7ECScore17BasePlatformErrorOSQAAMc>
    b968:	48 8d 35 99 32 03 00 	lea    0x33299(%rip),%rsi        # 3ec08 <$s7ECScore17BasePlatformErrorON>
    b96f:	e8 4c f0 ff ff       	call   a9c0 <swift_getWitnessTable@plt>
    b974:	48 89 05 65 9b 03 00 	mov    %rax,0x39b65(%rip)        # 454e0 <$s7ECScore17BasePlatformErrorOACSQAAWL>
    b97b:	5d                   	pop    %rbp
    b97c:	c3                   	ret
    b97d:	0f 1f 00             	nopl   (%rax)

000000000000b980 <$s7ECScore17BasePlatformErrorOs0D0AAsADP7_domainSSvgTW>:
    b980:	55                   	push   %rbp
    b981:	48 89 e5             	mov    %rsp,%rbp
    b984:	5d                   	pop    %rbp
    b985:	e9 46 f0 ff ff       	jmp    a9d0 <$ss5ErrorPsE7_domainSSvg@plt>
    b98a:	66 0f 1f 44 00 00    	nopw   0x0(%rax,%rax,1)

000000000000b990 <$s7ECScore17BasePlatformErrorOs0D0AAsADP5_codeSivgTW>:
    b990:	55                   	push   %rbp
    b991:	48 89 e5             	mov    %rsp,%rbp
    b994:	5d                   	pop    %rbp
    b995:	e9 46 f0 ff ff       	jmp    a9e0 <$ss5ErrorPsE5_codeSivg@plt>
    b99a:	66 0f 1f 44 00 00    	nopw   0x0(%rax,%rax,1)

000000000000b9a0 <$s7ECScore17BasePlatformErrorOs0D0AAsADP9_userInfoyXlSgvgTW>:
    b9a0:	55                   	push   %rbp
    b9a1:	48 89 e5             	mov    %rsp,%rbp
    b9a4:	5d                   	pop    %rbp
    b9a5:	e9 46 f0 ff ff       	jmp    a9f0 <$ss5ErrorPsE9_userInfoyXlSgvg@plt>
    b9aa:	66 0f 1f 44 00 00    	nopw   0x0(%rax,%rax,1)

000000000000b9b0 <__swift_memcpy0_1>:
    b9b0:	55                   	push   %rbp
    b9b1:	48 89 e5             	mov    %rsp,%rbp
    b9b4:	48 89 f8             	mov    %rdi,%rax
    b9b7:	5d                   	pop    %rbp
    b9b8:	c3                   	ret
    b9b9:	0f 1f 80 00 00 00 00 	nopl   0x0(%rax)
    b9c0:	55                   	push   %rbp
    b9c1:	48 89 e5             	mov    %rsp,%rbp
    b9c4:	5d                   	pop    %rbp
    b9c5:	c3                   	ret
    b9c6:	66 2e 0f 1f 84 00 00 	cs nopw 0x0(%rax,%rax,1)
    b9cd:	00 00 00 

000000000000b9d0 <$s7ECScore17BasePlatformErrorOwet>:
    b9d0:	55                   	push   %rbp
    b9d1:	48 89 e5             	mov    %rsp,%rbp
    b9d4:	85 f6                	test   %esi,%esi
    b9d6:	74 2e                	je     ba06 <$s7ECScore17BasePlatformErrorOwet+0x36>
    b9d8:	ff c6                	inc    %esi
    b9da:	31 c0                	xor    %eax,%eax
    b9dc:	81 fe 00 00 01 00    	cmp    $0x10000,%esi
    b9e2:	0f 93 c0             	setae  %al
    b9e5:	81 fe 00 01 00 00    	cmp    $0x100,%esi
    b9eb:	8d 4c 00 02          	lea    0x2(%rax,%rax,1),%ecx
    b9ef:	b8 01 00 00 00       	mov    $0x1,%eax
    b9f4:	0f 43 c1             	cmovae %ecx,%eax
    b9f7:	83 f8 04             	cmp    $0x4,%eax
    b9fa:	74 0e                	je     ba0a <$s7ECScore17BasePlatformErrorOwet+0x3a>
    b9fc:	83 f8 02             	cmp    $0x2,%eax
    b9ff:	75 0d                	jne    ba0e <$s7ECScore17BasePlatformErrorOwet+0x3e>
    ba01:	0f b7 07             	movzwl (%rdi),%eax
    ba04:	5d                   	pop    %rbp
    ba05:	c3                   	ret
    ba06:	31 c0                	xor    %eax,%eax
    ba08:	5d                   	pop    %rbp
    ba09:	c3                   	ret
    ba0a:	8b 07                	mov    (%rdi),%eax
    ba0c:	5d                   	pop    %rbp
    ba0d:	c3                   	ret
    ba0e:	0f b6 07             	movzbl (%rdi),%eax
    ba11:	5d                   	pop    %rbp
    ba12:	c3                   	ret
    ba13:	66 66 66 66 2e 0f 1f 	data16 data16 data16 cs nopw 0x0(%rax,%rax,1)
    ba1a:	84 00 00 00 00 00 

000000000000ba20 <$s7ECScore17BasePlatformErrorOwst>:
    ba20:	55                   	push   %rbp
    ba21:	48 89 e5             	mov    %rsp,%rbp
    ba24:	85 d2                	test   %edx,%edx
    ba26:	74 21                	je     ba49 <$s7ECScore17BasePlatformErrorOwst+0x29>
    ba28:	ff c2                	inc    %edx
    ba2a:	31 c0                	xor    %eax,%eax
    ba2c:	81 fa 00 00 01 00    	cmp    $0x10000,%edx
    ba32:	0f 93 c0             	setae  %al
    ba35:	81 fa 00 01 00 00    	cmp    $0x100,%edx
    ba3b:	8d 4c 00 02          	lea    0x2(%rax,%rax,1),%ecx
    ba3f:	b8 01 00 00 00       	mov    $0x1,%eax
    ba44:	0f 43 c1             	cmovae %ecx,%eax
    ba47:	eb 02                	jmp    ba4b <$s7ECScore17BasePlatformErrorOwst+0x2b>
    ba49:	31 c0                	xor    %eax,%eax
    ba4b:	89 c0                	mov    %eax,%eax
    ba4d:	85 f6                	test   %esi,%esi
    ba4f:	74 15                	je     ba66 <$s7ECScore17BasePlatformErrorOwst+0x46>
    ba51:	48 8d 0d 68 69 03 00 	lea    0x36968(%rip),%rcx        # 423c0 <__swift_reflection_version+0x10>
    ba58:	48 63 04 81          	movslq (%rcx,%rax,4),%rax
    ba5c:	48 01 c8             	add    %rcx,%rax
    ba5f:	ff e0                	jmp    *%rax
    ba61:	40 88 37             	mov    %sil,(%rdi)
    ba64:	5d                   	pop    %rbp
    ba65:	c3                   	ret
    ba66:	48 8d 0d 67 69 03 00 	lea    0x36967(%rip),%rcx        # 423d4 <__swift_reflection_version+0x24>
    ba6d:	48 63 04 81          	movslq (%rcx,%rax,4),%rax
    ba71:	48 01 c8             	add    %rcx,%rax
    ba74:	ff e0                	jmp    *%rax
    ba76:	c6 07 00             	movb   $0x0,(%rdi)
    ba79:	5d                   	pop    %rbp
    ba7a:	c3                   	ret
    ba7b:	66 89 37             	mov    %si,(%rdi)
    ba7e:	5d                   	pop    %rbp
    ba7f:	c3                   	ret
    ba80:	89 37                	mov    %esi,(%rdi)
    ba82:	5d                   	pop    %rbp
    ba83:	c3                   	ret
    ba84:	66 c7 07 00 00       	movw   $0x0,(%rdi)
    ba89:	5d                   	pop    %rbp
    ba8a:	c3                   	ret
    ba8b:	c7 07 00 00 00 00    	movl   $0x0,(%rdi)
    ba91:	5d                   	pop    %rbp
    ba92:	c3                   	ret
    ba93:	66 66 66 66 2e 0f 1f 	data16 data16 data16 cs nopw 0x0(%rax,%rax,1)
    ba9a:	84 00 00 00 00 00 

000000000000baa0 <$s7ECScore17BasePlatformErrorOwug>:
    baa0:	55                   	push   %rbp
    baa1:	48 89 e5             	mov    %rsp,%rbp
    baa4:	31 c0                	xor    %eax,%eax
    baa6:	5d                   	pop    %rbp
    baa7:	c3                   	ret
    baa8:	0f 1f 84 00 00 00 00 	nopl   0x0(%rax,%rax,1)
    baaf:	00 

000000000000bab0 <$s7ECScore17BasePlatformErrorOwup>:
    bab0:	55                   	push   %rbp
    bab1:	48 89 e5             	mov    %rsp,%rbp
    bab4:	5d                   	pop    %rbp
    bab5:	c3                   	ret
    bab6:	66 2e 0f 1f 84 00 00 	cs nopw 0x0(%rax,%rax,1)
    babd:	00 00 00 

000000000000bac0 <$s7ECScore17BasePlatformErrorOwui>:
    bac0:	55                   	push   %rbp
    bac1:	48 89 e5             	mov    %rsp,%rbp
    bac4:	5d                   	pop    %rbp
    bac5:	c3                   	ret
    bac6:	66 2e 0f 1f 84 00 00 	cs nopw 0x0(%rax,%rax,1)
    bacd:	00 00 00 

000000000000bad0 <$s7ECScore12BasePlatformC8storagesSayAA03AnyC7Storage_pSgGvg>:
    bad0:	55                   	push   %rbp
    bad1:	48 89 e5             	mov    %rsp,%rbp
    bad4:	53                   	push   %rbx
    bad5:	48 83 ec 18          	sub    $0x18,%rsp
    bad9:	49 8d 7d 10          	lea    0x10(%r13),%rdi
    badd:	48 8d 75 e0          	lea    -0x20(%rbp),%rsi
    bae1:	31 d2                	xor    %edx,%edx
    bae3:	31 c9                	xor    %ecx,%ecx
    bae5:	e8 16 ef ff ff       	call   aa00 <swift_beginAccess@plt>
    baea:	49 8b 5d 10          	mov    0x10(%r13),%rbx
    baee:	48 89 df             	mov    %rbx,%rdi
    baf1:	e8 1a ef ff ff       	call   aa10 <swift_retain@plt>
    baf6:	48 89 d8             	mov    %rbx,%rax
    baf9:	48 83 c4 18          	add    $0x18,%rsp
    bafd:	5b                   	pop    %rbx
    bafe:	5d                   	pop    %rbp
    baff:	c3                   	ret

000000000000bb00 <$s7ECScore12BasePlatformC8storagesSayAA03AnyC7Storage_pSgGvs>:
    bb00:	55                   	push   %rbp
    bb01:	48 89 e5             	mov    %rsp,%rbp
    bb04:	53                   	push   %rbx
    bb05:	48 83 ec 18          	sub    $0x18,%rsp
    bb09:	48 89 fb             	mov    %rdi,%rbx
    bb0c:	49 8d 7d 10          	lea    0x10(%r13),%rdi
    bb10:	48 8d 75 e0          	lea    -0x20(%rbp),%rsi
    bb14:	ba 01 00 00 00       	mov    $0x1,%edx
    bb19:	31 c9                	xor    %ecx,%ecx
    bb1b:	e8 e0 ee ff ff       	call   aa00 <swift_beginAccess@plt>
    bb20:	49 8b 7d 10          	mov    0x10(%r13),%rdi
    bb24:	49 89 5d 10          	mov    %rbx,0x10(%r13)
    bb28:	e8 13 ee ff ff       	call   a940 <swift_release@plt>
    bb2d:	48 83 c4 18          	add    $0x18,%rsp
    bb31:	5b                   	pop    %rbx
    bb32:	5d                   	pop    %rbp
    bb33:	c3                   	ret
    bb34:	66 66 66 2e 0f 1f 84 	data16 data16 cs nopw 0x0(%rax,%rax,1)
    bb3b:	00 00 00 00 00 

000000000000bb40 <$s7ECScore12BasePlatformC8storagesSayAA03AnyC7Storage_pSgGvM>:
    bb40:	55                   	push   %rbp
    bb41:	48 89 e5             	mov    %rsp,%rbp
    bb44:	53                   	push   %rbx
    bb45:	50                   	push   %rax
    bb46:	48 89 fe             	mov    %rdi,%rsi
    bb49:	49 8d 5d 10          	lea    0x10(%r13),%rbx
    bb4d:	ba 21 00 00 00       	mov    $0x21,%edx
    bb52:	48 89 df             	mov    %rbx,%rdi
    bb55:	31 c9                	xor    %ecx,%ecx
    bb57:	e8 a4 ee ff ff       	call   aa00 <swift_beginAccess@plt>
    bb5c:	48 8d 05 3d fd ff ff 	lea    -0x2c3(%rip),%rax        # b8a0 <$s7ECScore12BasePlatformC8storagesSayAA03AnyC7Storage_pSgGvM.resume.0>
    bb63:	48 89 da             	mov    %rbx,%rdx
    bb66:	48 83 c4 08          	add    $0x8,%rsp
    bb6a:	5b                   	pop    %rbx
    bb6b:	5d                   	pop    %rbp
    bb6c:	c3                   	ret
    bb6d:	0f 1f 00             	nopl   (%rax)

000000000000bb70 <$s7ECScore12BasePlatformCACycfC>:
    bb70:	55                   	push   %rbp
    bb71:	48 89 e5             	mov    %rsp,%rbp
    bb74:	4c 89 ef             	mov    %r13,%rdi
    bb77:	be 18 00 00 00       	mov    $0x18,%esi
    bb7c:	ba 07 00 00 00       	mov    $0x7,%edx
    bb81:	e8 9a ee ff ff       	call   aa20 <swift_allocObject@plt>
    bb86:	48 8b 0d 83 53 03 00 	mov    0x35383(%rip),%rcx        # 40f10 <_swiftEmptyArrayStorage>
    bb8d:	48 89 48 10          	mov    %rcx,0x10(%rax)
    bb91:	5d                   	pop    %rbp
    bb92:	c3                   	ret
    bb93:	66 66 66 66 2e 0f 1f 	data16 data16 data16 cs nopw 0x0(%rax,%rax,1)
    bb9a:	84 00 00 00 00 00 

000000000000bba0 <$s7ECScore12BasePlatformCACycfc>:
    bba0:	55                   	push   %rbp
    bba1:	48 89 e5             	mov    %rsp,%rbp
    bba4:	4c 89 e8             	mov    %r13,%rax
    bba7:	48 8b 0d 62 53 03 00 	mov    0x35362(%rip),%rcx        # 40f10 <_swiftEmptyArrayStorage>
    bbae:	49 89 4d 10          	mov    %rcx,0x10(%r13)
    bbb2:	5d                   	pop    %rbp
    bbb3:	c3                   	ret
    bbb4:	66 66 66 2e 0f 1f 84 	data16 data16 cs nopw 0x0(%rax,%rax,1)
    bbbb:	00 00 00 00 00 

000000000000bbc0 <$s7ECScore12BasePlatformCfd>:
    bbc0:	55                   	push   %rbp
    bbc1:	48 89 e5             	mov    %rsp,%rbp
    bbc4:	49 8b 7d 10          	mov    0x10(%r13),%rdi
    bbc8:	e8 73 ed ff ff       	call   a940 <swift_release@plt>
    bbcd:	4c 89 e8             	mov    %r13,%rax
    bbd0:	5d                   	pop    %rbp
    bbd1:	c3                   	ret
    bbd2:	66 66 66 66 66 2e 0f 	data16 data16 data16 data16 cs nopw 0x0(%rax,%rax,1)
    bbd9:	1f 84 00 00 00 00 00 

000000000000bbe0 <$s7ECScore12BasePlatformCfD>:
    bbe0:	55                   	push   %rbp
    bbe1:	48 89 e5             	mov    %rsp,%rbp
    bbe4:	49 8b 7d 10          	mov    0x10(%r13),%rdi
    bbe8:	e8 53 ed ff ff       	call   a940 <swift_release@plt>
    bbed:	be 18 00 00 00       	mov    $0x18,%esi
    bbf2:	ba 07 00 00 00       	mov    $0x7,%edx
    bbf7:	4c 89 ef             	mov    %r13,%rdi
    bbfa:	5d                   	pop    %rbp
    bbfb:	e9 20 ed ff ff       	jmp    a920 <swift_deallocClassInstance@plt>

000000000000bc00 <$s7ECScore17BasePlatformErrorO21__derived_enum_equalsySbAC_ACtFZ>:
    bc00:	55                   	push   %rbp
    bc01:	48 89 e5             	mov    %rsp,%rbp
    bc04:	b0 01                	mov    $0x1,%al
    bc06:	5d                   	pop    %rbp
    bc07:	c3                   	ret
    bc08:	0f 1f 84 00 00 00 00 	nopl   0x0(%rax,%rax,1)
    bc0f:	00 

000000000000bc10 <$s7ECScore17BasePlatformErrorO4hash4intoys6HasherVz_tF>:
    bc10:	55                   	push   %rbp
    bc11:	48 89 e5             	mov    %rsp,%rbp
    bc14:	41 55                	push   %r13
    bc16:	50                   	push   %rax
    bc17:	49 89 fd             	mov    %rdi,%r13
    bc1a:	31 ff                	xor    %edi,%edi
    bc1c:	e8 7f ed ff ff       	call   a9a0 <$ss6HasherV8_combineyySuF@plt>
    bc21:	48 83 c4 08          	add    $0x8,%rsp
    bc25:	41 5d                	pop    %r13
    bc27:	5d                   	pop    %rbp
    bc28:	c3                   	ret
    bc29:	0f 1f 80 00 00 00 00 	nopl   0x0(%rax)

000000000000bc30 <$s7ECScore17BasePlatformErrorO9hashValueSivg>:
    bc30:	55                   	push   %rbp
    bc31:	48 89 e5             	mov    %rsp,%rbp
    bc34:	41 55                	push   %r13
    bc36:	48 83 ec 48          	sub    $0x48,%rsp
    bc3a:	4c 8d 6d b0          	lea    -0x50(%rbp),%r13
    bc3e:	4c 89 e8             	mov    %r13,%rax
    bc41:	31 ff                	xor    %edi,%edi
    bc43:	e8 48 ed ff ff       	call   a990 <$ss6HasherV5_seedABSi_tcfC@plt>
    bc48:	31 ff                	xor    %edi,%edi
    bc4a:	e8 51 ed ff ff       	call   a9a0 <$ss6HasherV8_combineyySuF@plt>
    bc4f:	e8 5c ed ff ff       	call   a9b0 <$ss6HasherV9_finalizeSiyF@plt>
    bc54:	48 83 c4 48          	add    $0x48,%rsp
    bc58:	41 5d                	pop    %r13
    bc5a:	5d                   	pop    %rbp
    bc5b:	c3                   	ret
    bc5c:	0f 1f 40 00          	nopl   0x0(%rax)

000000000000bc60 <$s7ECScore12BasePlatformCMa>:
    bc60:	48 8d 05 a1 58 03 00 	lea    0x358a1(%rip),%rax        # 41508 <$s7ECScore12BasePlatformCN>
    bc67:	31 d2                	xor    %edx,%edx
    bc69:	c3                   	ret
    bc6a:	66 0f 1f 44 00 00    	nopw   0x0(%rax,%rax,1)

000000000000bc70 <$s7ECScore17BasePlatformErrorOMa>:
    bc70:	48 8d 05 91 2f 03 00 	lea    0x32f91(%rip),%rax        # 3ec08 <$s7ECScore17BasePlatformErrorON>
    bc77:	31 d2                	xor    %edx,%edx
    bc79:	c3                   	ret
    bc7a:	66 0f 1f 44 00 00    	nopw   0x0(%rax,%rax,1)

000000000000bc80 <$s7ECScore10Block64_L2VwCP>:
    bc80:	55                   	push   %rbp
    bc81:	48 89 e5             	mov    %rsp,%rbp
    bc84:	53                   	push   %rbx
    bc85:	50                   	push   %rax
    bc86:	48 8b 06             	mov    (%rsi),%rax
    bc89:	48 89 07             	mov    %rax,(%rdi)
    bc8c:	48 8d 58 10          	lea    0x10(%rax),%rbx
    bc90:	48 89 c7             	mov    %rax,%rdi
    bc93:	e8 78 ed ff ff       	call   aa10 <swift_retain@plt>
    bc98:	48 89 d8             	mov    %rbx,%rax
    bc9b:	48 83 c4 08          	add    $0x8,%rsp
    bc9f:	5b                   	pop    %rbx
    bca0:	5d                   	pop    %rbp
    bca1:	c3                   	ret
    bca2:	66 66 66 66 66 2e 0f 	data16 data16 data16 data16 cs nopw 0x0(%rax,%rax,1)
    bca9:	1f 84 00 00 00 00 00 

000000000000bcb0 <$s7ECScore10Block64_L2Vwxx>:
    bcb0:	55                   	push   %rbp
    bcb1:	48 89 e5             	mov    %rsp,%rbp
    bcb4:	48 8b 7f 18          	mov    0x18(%rdi),%rdi
    bcb8:	5d                   	pop    %rbp
    bcb9:	e9 82 ec ff ff       	jmp    a940 <swift_release@plt>
    bcbe:	66 90                	xchg   %ax,%ax

000000000000bcc0 <$s7ECScore10Block64_L2Vwcp>:
    bcc0:	55                   	push   %rbp
    bcc1:	48 89 e5             	mov    %rsp,%rbp
    bcc4:	53                   	push   %rbx
    bcc5:	50                   	push   %rax
    bcc6:	48 89 fb             	mov    %rdi,%rbx
    bcc9:	0f 10 06             	movups (%rsi),%xmm0
    bccc:	0f 11 07             	movups %xmm0,(%rdi)
    bccf:	48 8b 46 10          	mov    0x10(%rsi),%rax
    bcd3:	48 89 47 10          	mov    %rax,0x10(%rdi)
    bcd7:	48 8b 7e 18          	mov    0x18(%rsi),%rdi
    bcdb:	48 89 7b 18          	mov    %rdi,0x18(%rbx)
    bcdf:	e8 2c ed ff ff       	call   aa10 <swift_retain@plt>
    bce4:	48 89 d8             	mov    %rbx,%rax
    bce7:	48 83 c4 08          	add    $0x8,%rsp
    bceb:	5b                   	pop    %rbx
    bcec:	5d                   	pop    %rbp
    bced:	c3                   	ret
    bcee:	66 90                	xchg   %ax,%ax

000000000000bcf0 <$s7ECScore10Block64_L2Vwca>:
    bcf0:	55                   	push   %rbp
    bcf1:	48 89 e5             	mov    %rsp,%rbp
    bcf4:	41 56                	push   %r14
    bcf6:	53                   	push   %rbx
    bcf7:	48 89 fb             	mov    %rdi,%rbx
    bcfa:	48 8b 06             	mov    (%rsi),%rax
    bcfd:	48 89 07             	mov    %rax,(%rdi)
    bd00:	48 8b 46 08          	mov    0x8(%rsi),%rax
    bd04:	48 89 47 08          	mov    %rax,0x8(%rdi)
    bd08:	48 8b 46 10          	mov    0x10(%rsi),%rax
    bd0c:	48 89 47 10          	mov    %rax,0x10(%rdi)
    bd10:	48 8b 7e 18          	mov    0x18(%rsi),%rdi
    bd14:	4c 8b 73 18          	mov    0x18(%rbx),%r14
    bd18:	48 89 7b 18          	mov    %rdi,0x18(%rbx)
    bd1c:	e8 ef ec ff ff       	call   aa10 <swift_retain@plt>
    bd21:	4c 89 f7             	mov    %r14,%rdi
    bd24:	e8 17 ec ff ff       	call   a940 <swift_release@plt>
    bd29:	48 89 d8             	mov    %rbx,%rax
    bd2c:	5b                   	pop    %rbx
    bd2d:	41 5e                	pop    %r14
    bd2f:	5d                   	pop    %rbp
    bd30:	c3                   	ret
    bd31:	66 66 66 66 66 66 2e 	data16 data16 data16 data16 data16 cs nopw 0x0(%rax,%rax,1)
    bd38:	0f 1f 84 00 00 00 00 
    bd3f:	00 
    bd40:	55                   	push   %rbp
    bd41:	48 89 e5             	mov    %rsp,%rbp
    bd44:	48 89 f8             	mov    %rdi,%rax
    bd47:	0f 10 06             	movups (%rsi),%xmm0
    bd4a:	0f 10 4e 10          	movups 0x10(%rsi),%xmm1
    bd4e:	0f 11 4f 10          	movups %xmm1,0x10(%rdi)
    bd52:	0f 11 07             	movups %xmm0,(%rdi)
    bd55:	5d                   	pop    %rbp
    bd56:	c3                   	ret
    bd57:	66 0f 1f 84 00 00 00 	nopw   0x0(%rax,%rax,1)
    bd5e:	00 00 

000000000000bd60 <$s7ECScore10Block64_L2Vwta>:
    bd60:	55                   	push   %rbp
    bd61:	48 89 e5             	mov    %rsp,%rbp
    bd64:	53                   	push   %rbx
    bd65:	50                   	push   %rax
    bd66:	48 89 fb             	mov    %rdi,%rbx
    bd69:	0f 10 06             	movups (%rsi),%xmm0
    bd6c:	0f 11 07             	movups %xmm0,(%rdi)
    bd6f:	48 8b 46 10          	mov    0x10(%rsi),%rax
    bd73:	48 89 47 10          	mov    %rax,0x10(%rdi)
    bd77:	48 8b 46 18          	mov    0x18(%rsi),%rax
    bd7b:	48 8b 7f 18          	mov    0x18(%rdi),%rdi
    bd7f:	48 89 43 18          	mov    %rax,0x18(%rbx)
    bd83:	e8 b8 eb ff ff       	call   a940 <swift_release@plt>
    bd88:	48 89 d8             	mov    %rbx,%rax
    bd8b:	48 83 c4 08          	add    $0x8,%rsp
    bd8f:	5b                   	pop    %rbx
    bd90:	5d                   	pop    %rbp
    bd91:	c3                   	ret
    bd92:	66 66 66 66 66 2e 0f 	data16 data16 data16 data16 cs nopw 0x0(%rax,%rax,1)
    bd99:	1f 84 00 00 00 00 00 

000000000000bda0 <$s7ECScore10Block64_L2Vwet>:
    bda0:	55                   	push   %rbp
    bda1:	48 89 e5             	mov    %rsp,%rbp
    bda4:	85 f6                	test   %esi,%esi
    bda6:	74 2c                	je     bdd4 <$s7ECScore10Block64_L2Vwet+0x34>
    bda8:	81 fe 01 10 00 00    	cmp    $0x1001,%esi
    bdae:	72 0f                	jb     bdbf <$s7ECScore10Block64_L2Vwet+0x1f>
    bdb0:	80 7f 20 00          	cmpb   $0x0,0x20(%rdi)
    bdb4:	74 09                	je     bdbf <$s7ECScore10Block64_L2Vwet+0x1f>
    bdb6:	b8 00 10 00 00       	mov    $0x1000,%eax
    bdbb:	03 07                	add    (%rdi),%eax
    bdbd:	eb 1a                	jmp    bdd9 <$s7ECScore10Block64_L2Vwet+0x39>
    bdbf:	48 8b 4f 18          	mov    0x18(%rdi),%rcx
    bdc3:	48 81 f9 00 10 00 00 	cmp    $0x1000,%rcx
    bdca:	b8 ff ff ff ff       	mov    $0xffffffff,%eax
    bdcf:	0f 42 c1             	cmovb  %ecx,%eax
    bdd2:	eb 05                	jmp    bdd9 <$s7ECScore10Block64_L2Vwet+0x39>
    bdd4:	b8 ff ff ff ff       	mov    $0xffffffff,%eax
    bdd9:	ff c0                	inc    %eax
    bddb:	5d                   	pop    %rbp
    bddc:	c3                   	ret
    bddd:	0f 1f 00             	nopl   (%rax)

000000000000bde0 <$s7ECScore10Block64_L2Vwst>:
    bde0:	55                   	push   %rbp
    bde1:	48 89 e5             	mov    %rsp,%rbp
    bde4:	81 fe 00 10 00 00    	cmp    $0x1000,%esi
    bdea:	77 18                	ja     be04 <$s7ECScore10Block64_L2Vwst+0x24>
    bdec:	81 fa 01 10 00 00    	cmp    $0x1001,%edx
    bdf2:	72 04                	jb     bdf8 <$s7ECScore10Block64_L2Vwst+0x18>
    bdf4:	c6 47 20 00          	movb   $0x0,0x20(%rdi)
    bdf8:	85 f6                	test   %esi,%esi
    bdfa:	74 2c                	je     be28 <$s7ECScore10Block64_L2Vwst+0x48>
    bdfc:	ff ce                	dec    %esi
    bdfe:	48 89 77 18          	mov    %rsi,0x18(%rdi)
    be02:	5d                   	pop    %rbp
    be03:	c3                   	ret
    be04:	81 c6 ff ef ff ff    	add    $0xffffefff,%esi
    be0a:	0f 57 c0             	xorps  %xmm0,%xmm0
    be0d:	0f 11 47 08          	movups %xmm0,0x8(%rdi)
    be11:	48 89 37             	mov    %rsi,(%rdi)
    be14:	48 c7 47 18 00 00 00 	movq   $0x0,0x18(%rdi)
    be1b:	00 
    be1c:	81 fa 01 10 00 00    	cmp    $0x1001,%edx
    be22:	72 04                	jb     be28 <$s7ECScore10Block64_L2Vwst+0x48>
    be24:	c6 47 20 01          	movb   $0x1,0x20(%rdi)
    be28:	5d                   	pop    %rbp
    be29:	c3                   	ret
    be2a:	66 0f 1f 44 00 00    	nopw   0x0(%rax,%rax,1)

000000000000be30 <$s7ECScore10Block64_L2VMa>:
    be30:	48 8d 05 49 2e 03 00 	lea    0x32e49(%rip),%rax        # 3ec80 <$s7ECScore10Block64_L2VN>
    be37:	31 d2                	xor    %edx,%edx
    be39:	c3                   	ret
    be3a:	66 0f 1f 44 00 00    	nopw   0x0(%rax,%rax,1)

000000000000be40 <$s7ECScore20PlatformReservedSlotOSQAASQ2eeoiySbx_xtFZTW>:
    be40:	55                   	push   %rbp
    be41:	48 89 e5             	mov    %rsp,%rbp
    be44:	0f b6 07             	movzbl (%rdi),%eax
    be47:	32 06                	xor    (%rsi),%al
    be49:	34 01                	xor    $0x1,%al
    be4b:	5d                   	pop    %rbp
    be4c:	c3                   	ret
    be4d:	0f 1f 00             	nopl   (%rax)

000000000000be50 <$s7ECScore20PlatformReservedSlotOSHAASH9hashValueSivgTW>:
    be50:	55                   	push   %rbp
    be51:	48 89 e5             	mov    %rsp,%rbp
    be54:	41 55                	push   %r13
    be56:	53                   	push   %rbx
    be57:	48 83 ec 50          	sub    $0x50,%rsp
    be5b:	41 0f b6 5d 00       	movzbl 0x0(%r13),%ebx
    be60:	4c 8d 6d a8          	lea    -0x58(%rbp),%r13
    be64:	4c 89 e8             	mov    %r13,%rax
    be67:	31 ff                	xor    %edi,%edi
    be69:	e8 22 eb ff ff       	call   a990 <$ss6HasherV5_seedABSi_tcfC@plt>
    be6e:	48 89 df             	mov    %rbx,%rdi
    be71:	e8 2a eb ff ff       	call   a9a0 <$ss6HasherV8_combineyySuF@plt>
    be76:	e8 35 eb ff ff       	call   a9b0 <$ss6HasherV9_finalizeSiyF@plt>
    be7b:	48 83 c4 50          	add    $0x50,%rsp
    be7f:	5b                   	pop    %rbx
    be80:	41 5d                	pop    %r13
    be82:	5d                   	pop    %rbp
    be83:	c3                   	ret
    be84:	66 66 66 2e 0f 1f 84 	data16 data16 cs nopw 0x0(%rax,%rax,1)
    be8b:	00 00 00 00 00 

000000000000be90 <$s7ECScore20PlatformReservedSlotOSHAASH4hash4intoys6HasherVz_tFTW>:
    be90:	55                   	push   %rbp
    be91:	48 89 e5             	mov    %rsp,%rbp
    be94:	41 55                	push   %r13
    be96:	50                   	push   %rax
    be97:	48 89 f8             	mov    %rdi,%rax
    be9a:	41 0f b6 7d 00       	movzbl 0x0(%r13),%edi
    be9f:	49 89 c5             	mov    %rax,%r13
    bea2:	e8 f9 ea ff ff       	call   a9a0 <$ss6HasherV8_combineyySuF@plt>
    bea7:	48 83 c4 08          	add    $0x8,%rsp
    beab:	41 5d                	pop    %r13
    bead:	5d                   	pop    %rbp
    beae:	c3                   	ret
    beaf:	90                   	nop

000000000000beb0 <$s7ECScore20PlatformReservedSlotOSHAASH13_rawHashValue4seedS2i_tFTW>:
    beb0:	55                   	push   %rbp
    beb1:	48 89 e5             	mov    %rsp,%rbp
    beb4:	41 55                	push   %r13
    beb6:	53                   	push   %rbx
    beb7:	48 83 ec 50          	sub    $0x50,%rsp
    bebb:	41 0f b6 5d 00       	movzbl 0x0(%r13),%ebx
    bec0:	4c 8d 6d a8          	lea    -0x58(%rbp),%r13
    bec4:	4c 89 e8             	mov    %r13,%rax
    bec7:	e8 c4 ea ff ff       	call   a990 <$ss6HasherV5_seedABSi_tcfC@plt>
    becc:	48 89 df             	mov    %rbx,%rdi
    becf:	e8 cc ea ff ff       	call   a9a0 <$ss6HasherV8_combineyySuF@plt>
    bed4:	e8 d7 ea ff ff       	call   a9b0 <$ss6HasherV9_finalizeSiyF@plt>
    bed9:	48 83 c4 50          	add    $0x50,%rsp
    bedd:	5b                   	pop    %rbx
    bede:	41 5d                	pop    %r13
    bee0:	5d                   	pop    %rbp
    bee1:	c3                   	ret
    bee2:	66 66 66 66 66 2e 0f 	data16 data16 data16 data16 cs nopw 0x0(%rax,%rax,1)
    bee9:	1f 84 00 00 00 00 00 

000000000000bef0 <$s7ECScore20PlatformReservedSlotOSYAASY8rawValuexSg03RawF0Qz_tcfCTW>:
    bef0:	55                   	push   %rbp
    bef1:	48 89 e5             	mov    %rsp,%rbp
    bef4:	48 8b 0f             	mov    (%rdi),%rcx
    bef7:	48 83 f9 01          	cmp    $0x1,%rcx
    befb:	0f 94 c2             	sete   %dl
    befe:	40 b6 02             	mov    $0x2,%sil
    bf01:	40 28 d6             	sub    %dl,%sil
    bf04:	31 d2                	xor    %edx,%edx
    bf06:	48 85 c9             	test   %rcx,%rcx
    bf09:	40 0f b6 ce          	movzbl %sil,%ecx
    bf0d:	0f 44 ca             	cmove  %edx,%ecx
    bf10:	88 08                	mov    %cl,(%rax)
    bf12:	5d                   	pop    %rbp
    bf13:	c3                   	ret
    bf14:	66 66 66 2e 0f 1f 84 	data16 data16 cs nopw 0x0(%rax,%rax,1)
    bf1b:	00 00 00 00 00 

000000000000bf20 <$s7ECScore20PlatformReservedSlotOSYAASY8rawValue03RawF0QzvgTW>:
    bf20:	55                   	push   %rbp
    bf21:	48 89 e5             	mov    %rsp,%rbp
    bf24:	41 0f b6 4d 00       	movzbl 0x0(%r13),%ecx
    bf29:	48 89 08             	mov    %rcx,(%rax)
    bf2c:	5d                   	pop    %rbp
    bf2d:	c3                   	ret
    bf2e:	66 90                	xchg   %ax,%ax

000000000000bf30 <__swift_instantiateConcreteTypeFromMangledName>:
    bf30:	48 8b 07             	mov    (%rdi),%rax
    bf33:	48 85 c0             	test   %rax,%rax
    bf36:	78 01                	js     bf39 <__swift_instantiateConcreteTypeFromMangledName+0x9>
    bf38:	c3                   	ret
    bf39:	55                   	push   %rbp
    bf3a:	48 89 e5             	mov    %rsp,%rbp
    bf3d:	53                   	push   %rbx
    bf3e:	50                   	push   %rax
    bf3f:	48 89 c6             	mov    %rax,%rsi
    bf42:	48 c1 fe 20          	sar    $0x20,%rsi
    bf46:	48 f7 de             	neg    %rsi
    bf49:	48 98                	cltq
    bf4b:	48 01 f8             	add    %rdi,%rax
    bf4e:	48 89 fb             	mov    %rdi,%rbx
    bf51:	48 89 c7             	mov    %rax,%rdi
    bf54:	31 d2                	xor    %edx,%edx
    bf56:	31 c9                	xor    %ecx,%ecx
    bf58:	e8 d3 ea ff ff       	call   aa30 <swift_getTypeByMangledNameInContext2@plt>
    bf5d:	48 89 03             	mov    %rax,(%rbx)
    bf60:	48 83 c4 08          	add    $0x8,%rsp
    bf64:	5b                   	pop    %rbx
    bf65:	5d                   	pop    %rbp
    bf66:	c3                   	ret
    bf67:	66 0f 1f 84 00 00 00 	nopw   0x0(%rax,%rax,1)
    bf6e:	00 00 

000000000000bf70 <__swift_mutable_project_boxed_opaque_existential_1>:
    bf70:	48 8b 46 f8          	mov    -0x8(%rsi),%rax
    bf74:	8b 40 50             	mov    0x50(%rax),%eax
    bf77:	a9 00 00 02 00       	test   $0x20000,%eax
    bf7c:	74 10                	je     bf8e <__swift_mutable_project_boxed_opaque_existential_1+0x1e>
    bf7e:	55                   	push   %rbp
    bf7f:	48 89 e5             	mov    %rsp,%rbp
    bf82:	0f b6 d0             	movzbl %al,%edx
    bf85:	e8 b6 ea ff ff       	call   aa40 <swift_makeBoxUnique@plt>
    bf8a:	48 89 d7             	mov    %rdx,%rdi
    bf8d:	5d                   	pop    %rbp
    bf8e:	48 89 f8             	mov    %rdi,%rax
    bf91:	c3                   	ret
    bf92:	66 66 66 66 66 2e 0f 	data16 data16 data16 data16 cs nopw 0x0(%rax,%rax,1)
    bf99:	1f 84 00 00 00 00 00 

000000000000bfa0 <$s7ECScore18AnyPlatformStorage_pWOc>:
    bfa0:	55                   	push   %rbp
    bfa1:	48 89 e5             	mov    %rsp,%rbp
    bfa4:	53                   	push   %rbx
    bfa5:	50                   	push   %rax
    bfa6:	48 89 f3             	mov    %rsi,%rbx
    bfa9:	48 89 fe             	mov    %rdi,%rsi
    bfac:	48 8b 57 18          	mov    0x18(%rdi),%rdx
    bfb0:	48 89 53 18          	mov    %rdx,0x18(%rbx)
    bfb4:	48 8b 47 20          	mov    0x20(%rdi),%rax
    bfb8:	48 89 43 20          	mov    %rax,0x20(%rbx)
    bfbc:	48 8b 42 f8          	mov    -0x8(%rdx),%rax
    bfc0:	48 89 df             	mov    %rbx,%rdi
    bfc3:	ff 10                	call   *(%rax)
    bfc5:	48 89 d8             	mov    %rbx,%rax
    bfc8:	48 83 c4 08          	add    $0x8,%rsp
    bfcc:	5b                   	pop    %rbx
    bfcd:	5d                   	pop    %rbp
    bfce:	c3                   	ret
    bfcf:	90                   	nop

000000000000bfd0 <$s7ECScore18AnyPlatformStorage_pSgWOd>:
    bfd0:	55                   	push   %rbp
    bfd1:	48 89 e5             	mov    %rsp,%rbp
    bfd4:	41 56                	push   %r14
    bfd6:	53                   	push   %rbx
    bfd7:	48 89 f3             	mov    %rsi,%rbx
    bfda:	49 89 fe             	mov    %rdi,%r14
    bfdd:	48 8d 3d 74 55 03 00 	lea    0x35574(%rip),%rdi        # 41558 <$s7ECScore18AnyPlatformStorage_pSgMD>
    bfe4:	e8 47 ff ff ff       	call   bf30 <__swift_instantiateConcreteTypeFromMangledName>
    bfe9:	48 8b 48 f8          	mov    -0x8(%rax),%rcx
    bfed:	48 89 df             	mov    %rbx,%rdi
    bff0:	4c 89 f6             	mov    %r14,%rsi
    bff3:	48 89 c2             	mov    %rax,%rdx
    bff6:	ff 51 28             	call   *0x28(%rcx)
    bff9:	48 89 d8             	mov    %rbx,%rax
    bffc:	5b                   	pop    %rbx
    bffd:	41 5e                	pop    %r14
    bfff:	5d                   	pop    %rbp
    c000:	c3                   	ret
    c001:	66 66 66 66 66 66 2e 	data16 data16 data16 data16 data16 cs nopw 0x0(%rax,%rax,1)
    c008:	0f 1f 84 00 00 00 00 
    c00f:	00 

000000000000c010 <__swift_destroy_boxed_opaque_existential_0Tm>:
    c010:	55                   	push   %rbp
    c011:	48 89 e5             	mov    %rsp,%rbp
    c014:	48 8b 77 18          	mov    0x18(%rdi),%rsi
    c018:	48 8b 46 f8          	mov    -0x8(%rsi),%rax
    c01c:	f6 40 52 02          	testb  $0x2,0x52(%rax)
    c020:	75 07                	jne    c029 <__swift_destroy_boxed_opaque_existential_0Tm+0x19>
    c022:	48 8b 40 08          	mov    0x8(%rax),%rax
    c026:	5d                   	pop    %rbp
    c027:	ff e0                	jmp    *%rax
    c029:	48 8b 3f             	mov    (%rdi),%rdi
    c02c:	5d                   	pop    %rbp
    c02d:	e9 0e e9 ff ff       	jmp    a940 <swift_release@plt>
    c032:	66 66 66 66 66 2e 0f 	data16 data16 data16 data16 cs nopw 0x0(%rax,%rax,1)
    c039:	1f 84 00 00 00 00 00 

000000000000c040 <$s7ECScore18AnyPlatformStorage_pSgWOc>:
    c040:	55                   	push   %rbp
    c041:	48 89 e5             	mov    %rsp,%rbp
    c044:	41 56                	push   %r14
    c046:	53                   	push   %rbx
    c047:	48 89 f3             	mov    %rsi,%rbx
    c04a:	49 89 fe             	mov    %rdi,%r14
    c04d:	48 8d 3d 04 55 03 00 	lea    0x35504(%rip),%rdi        # 41558 <$s7ECScore18AnyPlatformStorage_pSgMD>
    c054:	e8 d7 fe ff ff       	call   bf30 <__swift_instantiateConcreteTypeFromMangledName>
    c059:	48 8b 48 f8          	mov    -0x8(%rax),%rcx
    c05d:	48 89 df             	mov    %rbx,%rdi
    c060:	4c 89 f6             	mov    %r14,%rsi
    c063:	48 89 c2             	mov    %rax,%rdx
    c066:	ff 51 10             	call   *0x10(%rcx)
    c069:	48 89 d8             	mov    %rbx,%rax
    c06c:	5b                   	pop    %rbx
    c06d:	41 5e                	pop    %r14
    c06f:	5d                   	pop    %rbp
    c070:	c3                   	ret
    c071:	66 66 66 66 66 66 2e 	data16 data16 data16 data16 data16 cs nopw 0x0(%rax,%rax,1)
    c078:	0f 1f 84 00 00 00 00 
    c07f:	00 

000000000000c080 <$s7ECScore18AnyPlatformStorage_pWOb>:
    c080:	55                   	push   %rbp
    c081:	48 89 e5             	mov    %rsp,%rbp
    c084:	48 89 f0             	mov    %rsi,%rax
    c087:	48 8b 4f 20          	mov    0x20(%rdi),%rcx
    c08b:	48 89 4e 20          	mov    %rcx,0x20(%rsi)
    c08f:	0f 10 07             	movups (%rdi),%xmm0
    c092:	0f 10 4f 10          	movups 0x10(%rdi),%xmm1
    c096:	0f 11 4e 10          	movups %xmm1,0x10(%rsi)
    c09a:	0f 11 06             	movups %xmm0,(%rsi)
    c09d:	5d                   	pop    %rbp
    c09e:	c3                   	ret
    c09f:	90                   	nop

000000000000c0a0 <__swift_project_boxed_opaque_existential_1>:
    c0a0:	55                   	push   %rbp
    c0a1:	48 89 e5             	mov    %rsp,%rbp
    c0a4:	48 89 f8             	mov    %rdi,%rax
    c0a7:	48 8b 4e f8          	mov    -0x8(%rsi),%rcx
    c0ab:	8b 49 50             	mov    0x50(%rcx),%ecx
    c0ae:	f7 c1 00 00 02 00    	test   $0x20000,%ecx
    c0b4:	74 10                	je     c0c6 <__swift_project_boxed_opaque_existential_1+0x26>
    c0b6:	0f b6 c9             	movzbl %cl,%ecx
    c0b9:	8d 51 10             	lea    0x10(%rcx),%edx
    c0bc:	f7 d1                	not    %ecx
    c0be:	21 d1                	and    %edx,%ecx
    c0c0:	48 03 08             	add    (%rax),%rcx
    c0c3:	48 89 c8             	mov    %rcx,%rax
    c0c6:	5d                   	pop    %rbp
    c0c7:	c3                   	ret
    c0c8:	0f 1f 84 00 00 00 00 	nopl   0x0(%rax,%rax,1)
    c0cf:	00 

000000000000c0d0 <$s7ECScore18AnyPlatformStorage_pSgWOhTm>:
    c0d0:	55                   	push   %rbp
    c0d1:	48 89 e5             	mov    %rsp,%rbp
    c0d4:	53                   	push   %rbx
    c0d5:	50                   	push   %rax
    c0d6:	48 89 fb             	mov    %rdi,%rbx
    c0d9:	48 89 f7             	mov    %rsi,%rdi
    c0dc:	e8 4f fe ff ff       	call   bf30 <__swift_instantiateConcreteTypeFromMangledName>
    c0e1:	48 8b 48 f8          	mov    -0x8(%rax),%rcx
    c0e5:	48 89 df             	mov    %rbx,%rdi
    c0e8:	48 89 c6             	mov    %rax,%rsi
    c0eb:	ff 51 08             	call   *0x8(%rcx)
    c0ee:	48 89 d8             	mov    %rbx,%rax
    c0f1:	48 83 c4 08          	add    $0x8,%rsp
    c0f5:	5b                   	pop    %rbx
    c0f6:	5d                   	pop    %rbp
    c0f7:	c3                   	ret
    c0f8:	0f 1f 84 00 00 00 00 	nopl   0x0(%rax,%rax,1)
    c0ff:	00 

000000000000c100 <$s7ECScore20PlatformReservedSlotOSHAASQWb>:
    c100:	55                   	push   %rbp
    c101:	48 89 e5             	mov    %rsp,%rbp
    c104:	5d                   	pop    %rbp
    c105:	e9 06 00 00 00       	jmp    c110 <$s7ECScore20PlatformReservedSlotOACSQAAWl>
    c10a:	66 0f 1f 44 00 00    	nopw   0x0(%rax,%rax,1)

000000000000c110 <$s7ECScore20PlatformReservedSlotOACSQAAWl>:
    c110:	48 8b 05 59 95 03 00 	mov    0x39559(%rip),%rax        # 45670 <$s7ECScore20PlatformReservedSlotOACSQAAWL>
    c117:	48 85 c0             	test   %rax,%rax
    c11a:	74 01                	je     c11d <$s7ECScore20PlatformReservedSlotOACSQAAWl+0xd>
    c11c:	c3                   	ret
    c11d:	55                   	push   %rbp
    c11e:	48 89 e5             	mov    %rsp,%rbp
    c121:	48 8d 3d c0 64 03 00 	lea    0x364c0(%rip),%rdi        # 425e8 <$s7ECScore20PlatformReservedSlotOSQAAMc>
    c128:	48 8d 35 81 2c 03 00 	lea    0x32c81(%rip),%rsi        # 3edb0 <$s7ECScore20PlatformReservedSlotON>
    c12f:	e8 8c e8 ff ff       	call   a9c0 <swift_getWitnessTable@plt>
    c134:	48 89 05 35 95 03 00 	mov    %rax,0x39535(%rip)        # 45670 <$s7ECScore20PlatformReservedSlotOACSQAAWL>
    c13b:	5d                   	pop    %rbp
    c13c:	c3                   	ret
    c13d:	0f 1f 00             	nopl   (%rax)

000000000000c140 <__swift_memcpy1_1>:
    c140:	55                   	push   %rbp
    c141:	48 89 e5             	mov    %rsp,%rbp
    c144:	48 89 f8             	mov    %rdi,%rax
    c147:	0f b6 0e             	movzbl (%rsi),%ecx
    c14a:	88 0f                	mov    %cl,(%rdi)
    c14c:	5d                   	pop    %rbp
    c14d:	c3                   	ret
    c14e:	66 90                	xchg   %ax,%ax
    c150:	55                   	push   %rbp
    c151:	48 89 e5             	mov    %rsp,%rbp
    c154:	5d                   	pop    %rbp
    c155:	c3                   	ret
    c156:	66 2e 0f 1f 84 00 00 	cs nopw 0x0(%rax,%rax,1)
    c15d:	00 00 00 

000000000000c160 <$s7ECScore20PlatformReservedSlotOwet>:
    c160:	55                   	push   %rbp
    c161:	48 89 e5             	mov    %rsp,%rbp
    c164:	85 f6                	test   %esi,%esi
    c166:	74 3b                	je     c1a3 <$s7ECScore20PlatformReservedSlotOwet+0x43>
    c168:	81 fe ff 00 00 00    	cmp    $0xff,%esi
    c16e:	72 56                	jb     c1c6 <$s7ECScore20PlatformReservedSlotOwet+0x66>
    c170:	ff c6                	inc    %esi
    c172:	31 c0                	xor    %eax,%eax
    c174:	81 fe 00 ff ff 00    	cmp    $0xffff00,%esi
    c17a:	0f 93 c0             	setae  %al
    c17d:	81 fe 00 ff 00 00    	cmp    $0xff00,%esi
    c183:	8d 4c 00 02          	lea    0x2(%rax,%rax,1),%ecx
    c187:	b8 01 00 00 00       	mov    $0x1,%eax
    c18c:	0f 43 c1             	cmovae %ecx,%eax
    c18f:	83 f8 04             	cmp    $0x4,%eax
    c192:	74 16                	je     c1aa <$s7ECScore20PlatformReservedSlotOwet+0x4a>
    c194:	83 f8 02             	cmp    $0x2,%eax
    c197:	75 25                	jne    c1be <$s7ECScore20PlatformReservedSlotOwet+0x5e>
    c199:	0f b7 47 01          	movzwl 0x1(%rdi),%eax
    c19d:	85 c0                	test   %eax,%eax
    c19f:	75 10                	jne    c1b1 <$s7ECScore20PlatformReservedSlotOwet+0x51>
    c1a1:	eb 23                	jmp    c1c6 <$s7ECScore20PlatformReservedSlotOwet+0x66>
    c1a3:	b8 ff ff ff ff       	mov    $0xffffffff,%eax
    c1a8:	eb 2d                	jmp    c1d7 <$s7ECScore20PlatformReservedSlotOwet+0x77>
    c1aa:	8b 47 01             	mov    0x1(%rdi),%eax
    c1ad:	85 c0                	test   %eax,%eax
    c1af:	74 15                	je     c1c6 <$s7ECScore20PlatformReservedSlotOwet+0x66>
    c1b1:	c1 e0 08             	shl    $0x8,%eax
    c1b4:	0f b6 0f             	movzbl (%rdi),%ecx
    c1b7:	01 c8                	add    %ecx,%eax
    c1b9:	83 c0 fe             	add    $0xfffffffe,%eax
    c1bc:	eb 19                	jmp    c1d7 <$s7ECScore20PlatformReservedSlotOwet+0x77>
    c1be:	0f b6 47 01          	movzbl 0x1(%rdi),%eax
    c1c2:	85 c0                	test   %eax,%eax
    c1c4:	75 eb                	jne    c1b1 <$s7ECScore20PlatformReservedSlotOwet+0x51>
    c1c6:	0f b6 07             	movzbl (%rdi),%eax
    c1c9:	8d 48 fe             	lea    -0x2(%rax),%ecx
    c1cc:	83 f8 02             	cmp    $0x2,%eax
    c1cf:	b8 ff ff ff ff       	mov    $0xffffffff,%eax
    c1d4:	0f 43 c1             	cmovae %ecx,%eax
    c1d7:	ff c0                	inc    %eax
    c1d9:	5d                   	pop    %rbp
    c1da:	c3                   	ret
    c1db:	0f 1f 44 00 00       	nopl   0x0(%rax,%rax,1)

000000000000c1e0 <$s7ECScore20PlatformReservedSlotOwst>:
    c1e0:	55                   	push   %rbp
    c1e1:	48 89 e5             	mov    %rsp,%rbp
    c1e4:	31 c0                	xor    %eax,%eax
    c1e6:	81 fa ff 00 00 00    	cmp    $0xff,%edx
    c1ec:	72 1f                	jb     c20d <$s7ECScore20PlatformReservedSlotOwst+0x2d>
    c1ee:	ff c2                	inc    %edx
    c1f0:	31 c0                	xor    %eax,%eax
    c1f2:	81 fa 00 ff ff 00    	cmp    $0xffff00,%edx
    c1f8:	0f 93 c0             	setae  %al
    c1fb:	81 fa 00 ff 00 00    	cmp    $0xff00,%edx
    c201:	8d 4c 00 02          	lea    0x2(%rax,%rax,1),%ecx
    c205:	b8 01 00 00 00       	mov    $0x1,%eax
    c20a:	0f 43 c1             	cmovae %ecx,%eax
    c20d:	81 fe fe 00 00 00    	cmp    $0xfe,%esi
    c213:	77 1c                	ja     c231 <$s7ECScore20PlatformReservedSlotOwst+0x51>
    c215:	89 c0                	mov    %eax,%eax
    c217:	48 8d 0d 86 63 03 00 	lea    0x36386(%rip),%rcx        # 425a4 <$s7ECScore10Block64_L2VMn+0x38>
    c21e:	48 63 04 81          	movslq (%rcx,%rax,4),%rax
    c222:	48 01 c8             	add    %rcx,%rax
    c225:	ff e0                	jmp    *%rax
    c227:	c6 47 01 00          	movb   $0x0,0x1(%rdi)
    c22b:	85 f6                	test   %esi,%esi
    c22d:	75 33                	jne    c262 <$s7ECScore20PlatformReservedSlotOwst+0x82>
    c22f:	eb 44                	jmp    c275 <$s7ECScore20PlatformReservedSlotOwst+0x95>
    c231:	81 c6 01 ff ff ff    	add    $0xffffff01,%esi
    c237:	89 f1                	mov    %esi,%ecx
    c239:	c1 e9 08             	shr    $0x8,%ecx
    c23c:	ff c1                	inc    %ecx
    c23e:	40 88 37             	mov    %sil,(%rdi)
    c241:	89 c0                	mov    %eax,%eax
    c243:	48 8d 15 46 63 03 00 	lea    0x36346(%rip),%rdx        # 42590 <$s7ECScore10Block64_L2VMn+0x24>
    c24a:	48 63 04 82          	movslq (%rdx,%rax,4),%rax
    c24e:	48 01 d0             	add    %rdx,%rax
    c251:	ff e0                	jmp    *%rax
    c253:	88 4f 01             	mov    %cl,0x1(%rdi)
    c256:	5d                   	pop    %rbp
    c257:	c3                   	ret
    c258:	66 c7 47 01 00 00    	movw   $0x0,0x1(%rdi)
    c25e:	85 f6                	test   %esi,%esi
    c260:	74 13                	je     c275 <$s7ECScore20PlatformReservedSlotOwst+0x95>
    c262:	40 fe c6             	inc    %sil
    c265:	40 88 37             	mov    %sil,(%rdi)
    c268:	5d                   	pop    %rbp
    c269:	c3                   	ret
    c26a:	c7 47 01 00 00 00 00 	movl   $0x0,0x1(%rdi)
    c271:	85 f6                	test   %esi,%esi
    c273:	75 ed                	jne    c262 <$s7ECScore20PlatformReservedSlotOwst+0x82>
    c275:	5d                   	pop    %rbp
    c276:	c3                   	ret
    c277:	66 89 4f 01          	mov    %cx,0x1(%rdi)
    c27b:	5d                   	pop    %rbp
    c27c:	c3                   	ret
    c27d:	89 4f 01             	mov    %ecx,0x1(%rdi)
    c280:	5d                   	pop    %rbp
    c281:	c3                   	ret
    c282:	66 66 66 66 66 2e 0f 	data16 data16 data16 data16 cs nopw 0x0(%rax,%rax,1)
    c289:	1f 84 00 00 00 00 00 

000000000000c290 <$s7ECScore20PlatformReservedSlotOwug>:
    c290:	55                   	push   %rbp
    c291:	48 89 e5             	mov    %rsp,%rbp
    c294:	0f b6 07             	movzbl (%rdi),%eax
    c297:	5d                   	pop    %rbp
    c298:	c3                   	ret
    c299:	0f 1f 80 00 00 00 00 	nopl   0x0(%rax)

000000000000c2a0 <$s7ECScore20PlatformReservedSlotOwup>:
    c2a0:	55                   	push   %rbp
    c2a1:	48 89 e5             	mov    %rsp,%rbp
    c2a4:	5d                   	pop    %rbp
    c2a5:	c3                   	ret
    c2a6:	66 2e 0f 1f 84 00 00 	cs nopw 0x0(%rax,%rax,1)
    c2ad:	00 00 00 

000000000000c2b0 <$s7ECScore20PlatformReservedSlotOwui>:
    c2b0:	55                   	push   %rbp
    c2b1:	48 89 e5             	mov    %rsp,%rbp
    c2b4:	83 e6 01             	and    $0x1,%esi
    c2b7:	40 88 37             	mov    %sil,(%rdi)
    c2ba:	5d                   	pop    %rbp
    c2bb:	c3                   	ret
    c2bc:	0f 1f 40 00          	nopl   0x0(%rax)

000000000000c2c0 <$s7ECScore20PlatformReservedSlotO8rawValueACSgSi_tcfC>:
    c2c0:	55                   	push   %rbp
    c2c1:	48 89 e5             	mov    %rsp,%rbp
    c2c4:	48 83 ff 01          	cmp    $0x1,%rdi
    c2c8:	0f 94 c0             	sete   %al
    c2cb:	b1 02                	mov    $0x2,%cl
    c2cd:	28 c1                	sub    %al,%cl
    c2cf:	31 d2                	xor    %edx,%edx
    c2d1:	48 85 ff             	test   %rdi,%rdi
    c2d4:	0f b6 c1             	movzbl %cl,%eax
    c2d7:	0f 44 c2             	cmove  %edx,%eax
    c2da:	5d                   	pop    %rbp
    c2db:	c3                   	ret
    c2dc:	0f 1f 40 00          	nopl   0x0(%rax)

000000000000c2e0 <$s7ECScore20PlatformReservedSlotO8rawValueSivg>:
    c2e0:	55                   	push   %rbp
    c2e1:	48 89 e5             	mov    %rsp,%rbp
    c2e4:	89 f8                	mov    %edi,%eax
    c2e6:	83 e0 01             	and    $0x1,%eax
    c2e9:	5d                   	pop    %rbp
    c2ea:	c3                   	ret
    c2eb:	0f 1f 44 00 00       	nopl   0x0(%rax,%rax,1)

000000000000c2f0 <$s7ECScore12BasePlatformC4boot8registry8entitiesyx_q_tAA0C9_RegistryRzAA0C7_EntityR_r0_lF>:
    c2f0:	55                   	push   %rbp
    c2f1:	48 89 e5             	mov    %rsp,%rbp
    c2f4:	41 57                	push   %r15
    c2f6:	41 56                	push   %r14
    c2f8:	41 55                	push   %r13
    c2fa:	41 54                	push   %r12
    c2fc:	53                   	push   %rbx
    c2fd:	48 81 ec f8 00 00 00 	sub    $0xf8,%rsp
    c304:	4c 89 4d d0          	mov    %r9,-0x30(%rbp)
    c308:	4c 89 c3             	mov    %r8,%rbx
    c30b:	48 89 4d b0          	mov    %rcx,-0x50(%rbp)
    c30f:	48 89 55 c0          	mov    %rdx,-0x40(%rbp)
    c313:	48 89 75 a0          	mov    %rsi,-0x60(%rbp)
    c317:	49 89 fc             	mov    %rdi,%r12
    c31a:	48 89 7d a8          	mov    %rdi,-0x58(%rbp)
    c31e:	48 8d 3d 2b 52 03 00 	lea    0x3522b(%rip),%rdi        # 41550 <$ss23_ContiguousArrayStorageCy7ECScore011AnyPlatformC0_pSgGMD>
    c325:	e8 06 fc ff ff       	call   bf30 <__swift_instantiateConcreteTypeFromMangledName>
    c32a:	be 70 00 00 00       	mov    $0x70,%esi
    c32f:	ba 07 00 00 00       	mov    $0x7,%edx
    c334:	48 89 c7             	mov    %rax,%rdi
    c337:	e8 e4 e6 ff ff       	call   aa20 <swift_allocObject@plt>
    c33c:	49 89 c6             	mov    %rax,%r14
    c33f:	48 c7 40 10 02 00 00 	movq   $0x2,0x10(%rax)
    c346:	00 
    c347:	48 c7 40 18 04 00 00 	movq   $0x4,0x18(%rax)
    c34e:	00 
    c34f:	49 8d 7d 10          	lea    0x10(%r13),%rdi
    c353:	0f 57 c0             	xorps  %xmm0,%xmm0
    c356:	0f 11 40 20          	movups %xmm0,0x20(%rax)
    c35a:	0f 11 40 30          	movups %xmm0,0x30(%rax)
    c35e:	0f 11 40 40          	movups %xmm0,0x40(%rax)
    c362:	0f 11 40 50          	movups %xmm0,0x50(%rax)
    c366:	0f 11 40 60          	movups %xmm0,0x60(%rax)
    c36a:	48 8d b5 e0 fe ff ff 	lea    -0x120(%rbp),%rsi
    c371:	ba 01 00 00 00       	mov    $0x1,%edx
    c376:	48 89 7d 90          	mov    %rdi,-0x70(%rbp)
    c37a:	31 c9                	xor    %ecx,%ecx
    c37c:	e8 7f e6 ff ff       	call   aa00 <swift_beginAccess@plt>
    c381:	49 8b 7d 10          	mov    0x10(%r13),%rdi
    c385:	4d 89 75 10          	mov    %r14,0x10(%r13)
    c389:	e8 b2 e5 ff ff       	call   a940 <swift_release@plt>
    c38e:	48 89 d9             	mov    %rbx,%rcx
    c391:	48 89 5d c8          	mov    %rbx,-0x38(%rbp)
    c395:	4c 8b 73 08          	mov    0x8(%rbx),%r14
    c399:	4c 8b 7b 10          	mov    0x10(%rbx),%r15
    c39d:	48 8b 5d c0          	mov    -0x40(%rbp),%rbx
    c3a1:	48 89 df             	mov    %rbx,%rdi
    c3a4:	4c 89 f6             	mov    %r14,%rsi
    c3a7:	4d 89 e5             	mov    %r12,%r13
    c3aa:	48 89 da             	mov    %rbx,%rdx
    c3ad:	41 ff d7             	call   *%r15
    c3b0:	4d 89 f8             	mov    %r15,%r8
    c3b3:	48 89 45 b8          	mov    %rax,-0x48(%rbp)
    c3b7:	49 89 d4             	mov    %rdx,%r12
    c3ba:	48 8b 45 d0          	mov    -0x30(%rbp),%rax
    c3be:	4c 8b 78 08          	mov    0x8(%rax),%r15
    c3c2:	48 8b 7d b0          	mov    -0x50(%rbp),%rdi
    c3c6:	4c 89 fe             	mov    %r15,%rsi
    c3c9:	4c 8b 6d a8          	mov    -0x58(%rbp),%r13
    c3cd:	48 89 da             	mov    %rbx,%rdx
    c3d0:	48 8b 4d c8          	mov    -0x38(%rbp),%rcx
    c3d4:	41 ff d0             	call   *%r8
    c3d7:	48 89 45 c8          	mov    %rax,-0x38(%rbp)
    c3db:	48 89 55 88          	mov    %rdx,-0x78(%rbp)
    c3df:	48 8d 85 10 ff ff ff 	lea    -0xf0(%rbp),%rax
    c3e6:	49 89 dd             	mov    %rbx,%r13
    c3e9:	48 89 df             	mov    %rbx,%rdi
    c3ec:	4c 89 f6             	mov    %r14,%rsi
    c3ef:	41 ff 56 08          	call   *0x8(%r14)
    c3f3:	48 8d 85 38 ff ff ff 	lea    -0xc8(%rbp),%rax
    c3fa:	4c 8b 75 b0          	mov    -0x50(%rbp),%r14
    c3fe:	4d 89 f5             	mov    %r14,%r13
    c401:	4c 89 f7             	mov    %r14,%rdi
    c404:	4c 89 fe             	mov    %r15,%rsi
    c407:	41 ff 57 08          	call   *0x8(%r15)
    c40b:	bf 01 00 00 00       	mov    $0x1,%edi
    c410:	4c 8b 6d a0          	mov    -0x60(%rbp),%r13
    c414:	4c 89 f6             	mov    %r14,%rsi
    c417:	48 8b 55 d0          	mov    -0x30(%rbp),%rdx
    c41b:	ff 52 18             	call   *0x18(%rdx)
    c41e:	48 83 78 10 00       	cmpq   $0x0,0x10(%rax)
    c423:	0f 84 dd 01 00 00    	je     c606 <$s7ECScore12BasePlatformC4boot8registry8entitiesyx_q_tAA0C9_RegistryRzAA0C7_EntityR_r0_lF+0x316>
    c429:	48 8b 48 20          	mov    0x20(%rax),%rcx
    c42d:	48 89 4d d0          	mov    %rcx,-0x30(%rbp)
    c431:	4c 8b 78 28          	mov    0x28(%rax),%r15
    c435:	48 89 c7             	mov    %rax,%rdi
    c438:	e8 03 e5 ff ff       	call   a940 <swift_release@plt>
    c43d:	48 83 7d c8 01       	cmpq   $0x1,-0x38(%rbp)
    c442:	0f 85 c0 01 00 00    	jne    c608 <$s7ECScore12BasePlatformC4boot8registry8entitiesyx_q_tAA0C9_RegistryRzAA0C7_EntityR_r0_lF+0x318>
    c448:	4c 0b 65 88          	or     -0x78(%rbp),%r12
    c44c:	4c 0b 65 b8          	or     -0x48(%rbp),%r12
    c450:	4c 0b 65 d0          	or     -0x30(%rbp),%r12
    c454:	4d 09 fc             	or     %r15,%r12
    c457:	0f 85 ab 01 00 00    	jne    c608 <$s7ECScore12BasePlatformC4boot8registry8entitiesyx_q_tAA0C9_RegistryRzAA0C7_EntityR_r0_lF+0x318>
    c45d:	48 89 9d 78 ff ff ff 	mov    %rbx,-0x88(%rbp)
    c464:	48 8b 5d a8          	mov    -0x58(%rbp),%rbx
    c468:	48 89 9d 60 ff ff ff 	mov    %rbx,-0xa0(%rbp)
    c46f:	4c 8b a5 28 ff ff ff 	mov    -0xd8(%rbp),%r12
    c476:	4c 89 7d 98          	mov    %r15,-0x68(%rbp)
    c47a:	4c 8b b5 30 ff ff ff 	mov    -0xd0(%rbp),%r14
    c481:	48 8d bd 10 ff ff ff 	lea    -0xf0(%rbp),%rdi
    c488:	4c 89 e6             	mov    %r12,%rsi
    c48b:	e8 e0 fa ff ff       	call   bf70 <__swift_mutable_project_boxed_opaque_existential_1>
    c490:	49 89 c5             	mov    %rax,%r13
    c493:	49 8b 46 10          	mov    0x10(%r14),%rax
    c497:	48 89 45 c0          	mov    %rax,-0x40(%rbp)
    c49b:	48 89 df             	mov    %rbx,%rdi
    c49e:	e8 6d e5 ff ff       	call   aa10 <swift_retain@plt>
    c4a3:	48 8d 9d 60 ff ff ff 	lea    -0xa0(%rbp),%rbx
    c4aa:	48 8b 7d d0          	mov    -0x30(%rbp),%rdi
    c4ae:	4c 89 fe             	mov    %r15,%rsi
    c4b1:	48 89 da             	mov    %rbx,%rdx
    c4b4:	4c 89 e1             	mov    %r12,%rcx
    c4b7:	4d 89 f0             	mov    %r14,%r8
    c4ba:	ff 55 c0             	call   *-0x40(%rbp)
    c4bd:	48 89 df             	mov    %rbx,%rdi
    c4c0:	e8 4b fb ff ff       	call   c010 <__swift_destroy_boxed_opaque_existential_0Tm>
    c4c5:	48 8b 45 b0          	mov    -0x50(%rbp),%rax
    c4c9:	48 89 85 78 ff ff ff 	mov    %rax,-0x88(%rbp)
    c4d0:	4c 8b 65 a0          	mov    -0x60(%rbp),%r12
    c4d4:	4c 89 a5 60 ff ff ff 	mov    %r12,-0xa0(%rbp)
    c4db:	48 8b 9d 50 ff ff ff 	mov    -0xb0(%rbp),%rbx
    c4e2:	4c 8b bd 58 ff ff ff 	mov    -0xa8(%rbp),%r15
    c4e9:	48 8d bd 38 ff ff ff 	lea    -0xc8(%rbp),%rdi
    c4f0:	48 89 de             	mov    %rbx,%rsi
    c4f3:	e8 78 fa ff ff       	call   bf70 <__swift_mutable_project_boxed_opaque_existential_1>
    c4f8:	49 89 c5             	mov    %rax,%r13
    c4fb:	4d 8b 77 10          	mov    0x10(%r15),%r14
    c4ff:	4c 89 e7             	mov    %r12,%rdi
    c502:	e8 09 e5 ff ff       	call   aa10 <swift_retain@plt>
    c507:	4c 8d a5 60 ff ff ff 	lea    -0xa0(%rbp),%r12
    c50e:	48 8b 7d d0          	mov    -0x30(%rbp),%rdi
    c512:	48 8b 75 98          	mov    -0x68(%rbp),%rsi
    c516:	4c 89 e2             	mov    %r12,%rdx
    c519:	48 89 d9             	mov    %rbx,%rcx
    c51c:	4d 89 f8             	mov    %r15,%r8
    c51f:	41 ff d6             	call   *%r14
    c522:	4c 89 e7             	mov    %r12,%rdi
    c525:	e8 e6 fa ff ff       	call   c010 <__swift_destroy_boxed_opaque_existential_0Tm>
    c52a:	48 8d b5 60 ff ff ff 	lea    -0xa0(%rbp),%rsi
    c531:	48 8d bd 10 ff ff ff 	lea    -0xf0(%rbp),%rdi
    c538:	e8 63 fa ff ff       	call   bfa0 <$s7ECScore18AnyPlatformStorage_pWOc>
    c53d:	48 8d b5 f8 fe ff ff 	lea    -0x108(%rbp),%rsi
    c544:	ba 21 00 00 00       	mov    $0x21,%edx
    c549:	4c 8b 75 90          	mov    -0x70(%rbp),%r14
    c54d:	4c 89 f7             	mov    %r14,%rdi
    c550:	31 c9                	xor    %ecx,%ecx
    c552:	e8 a9 e4 ff ff       	call   aa00 <swift_beginAccess@plt>
    c557:	49 8b 1e             	mov    (%r14),%rbx
    c55a:	48 89 df             	mov    %rbx,%rdi
    c55d:	e8 ee e4 ff ff       	call   aa50 <swift_isUniquelyReferenced_nonNull_native@plt>
    c562:	49 89 1e             	mov    %rbx,(%r14)
    c565:	84 c0                	test   %al,%al
    c567:	75 0e                	jne    c577 <$s7ECScore12BasePlatformC4boot8registry8entitiesyx_q_tAA0C9_RegistryRzAA0C7_EntityR_r0_lF+0x287>
    c569:	48 89 df             	mov    %rbx,%rdi
    c56c:	e8 af 1e 00 00       	call   e420 <$ss22_ContiguousArrayBufferV20_consumeAndCreateNewAByxGyF7ECScore18AnyPlatformStorage_pSg_Tg5>
    c571:	48 89 c3             	mov    %rax,%rbx
    c574:	49 89 06             	mov    %rax,(%r14)
    c577:	48 8b 45 b8          	mov    -0x48(%rbp),%rax
    c57b:	48 3b 43 10          	cmp    0x10(%rbx),%rax
    c57f:	0f 8d 85 00 00 00    	jge    c60a <$s7ECScore12BasePlatformC4boot8registry8entitiesyx_q_tAA0C9_RegistryRzAA0C7_EntityR_r0_lF+0x31a>
    c585:	48 8d 04 80          	lea    (%rax,%rax,4),%rax
    c589:	48 8d 34 c3          	lea    (%rbx,%rax,8),%rsi
    c58d:	48 83 c6 20          	add    $0x20,%rsi
    c591:	48 8d bd 60 ff ff ff 	lea    -0xa0(%rbp),%rdi
    c598:	e8 33 fa ff ff       	call   bfd0 <$s7ECScore18AnyPlatformStorage_pSgWOd>
    c59d:	49 89 1e             	mov    %rbx,(%r14)
    c5a0:	48 8d bd 38 ff ff ff 	lea    -0xc8(%rbp),%rdi
    c5a7:	48 8d b5 60 ff ff ff 	lea    -0xa0(%rbp),%rsi
    c5ae:	e8 ed f9 ff ff       	call   bfa0 <$s7ECScore18AnyPlatformStorage_pWOc>
    c5b3:	49 89 1e             	mov    %rbx,(%r14)
    c5b6:	48 83 7b 10 02       	cmpq   $0x2,0x10(%rbx)
    c5bb:	72 4f                	jb     c60c <$s7ECScore12BasePlatformC4boot8registry8entitiesyx_q_tAA0C9_RegistryRzAA0C7_EntityR_r0_lF+0x31c>
    c5bd:	48 8d 73 48          	lea    0x48(%rbx),%rsi
    c5c1:	48 8d bd 60 ff ff ff 	lea    -0xa0(%rbp),%rdi
    c5c8:	e8 03 fa ff ff       	call   bfd0 <$s7ECScore18AnyPlatformStorage_pSgWOd>
    c5cd:	49 89 1e             	mov    %rbx,(%r14)
    c5d0:	48 8d bd f8 fe ff ff 	lea    -0x108(%rbp),%rdi
    c5d7:	e8 a4 e3 ff ff       	call   a980 <swift_endAccess@plt>
    c5dc:	48 8d bd 38 ff ff ff 	lea    -0xc8(%rbp),%rdi
    c5e3:	e8 28 fa ff ff       	call   c010 <__swift_destroy_boxed_opaque_existential_0Tm>
    c5e8:	48 8d bd 10 ff ff ff 	lea    -0xf0(%rbp),%rdi
    c5ef:	e8 1c fa ff ff       	call   c010 <__swift_destroy_boxed_opaque_existential_0Tm>
    c5f4:	48 81 c4 f8 00 00 00 	add    $0xf8,%rsp
    c5fb:	5b                   	pop    %rbx
    c5fc:	41 5c                	pop    %r12
    c5fe:	41 5d                	pop    %r13
    c600:	41 5e                	pop    %r14
    c602:	41 5f                	pop    %r15
    c604:	5d                   	pop    %rbp
    c605:	c3                   	ret
    c606:	0f 0b                	ud2
    c608:	0f 0b                	ud2
    c60a:	0f 0b                	ud2
    c60c:	0f 0b                	ud2
    c60e:	66 90                	xchg   %ax,%ax

000000000000c610 <$s7ECScore12BasePlatformC8registryAA0C9_Registry_pSgvg>:
    c610:	55                   	push   %rbp
    c611:	48 89 e5             	mov    %rsp,%rbp
    c614:	41 57                	push   %r15
    c616:	41 56                	push   %r14
    c618:	41 55                	push   %r13
    c61a:	53                   	push   %rbx
    c61b:	48 83 ec 70          	sub    $0x70,%rsp
    c61f:	49 8d 7d 10          	lea    0x10(%r13),%rdi
    c623:	48 8d 75 c8          	lea    -0x38(%rbp),%rsi
    c627:	ba 20 00 00 00       	mov    $0x20,%edx
    c62c:	31 c9                	xor    %ecx,%ecx
    c62e:	e8 cd e3 ff ff       	call   aa00 <swift_beginAccess@plt>
    c633:	49 8b 7d 10          	mov    0x10(%r13),%rdi
    c637:	48 83 7f 10 00       	cmpq   $0x0,0x10(%rdi)
    c63c:	0f 84 f2 00 00 00    	je     c734 <$s7ECScore12BasePlatformC8registryAA0C9_Registry_pSgvg+0x124>
    c642:	48 83 c7 20          	add    $0x20,%rdi
    c646:	48 8d 75 a0          	lea    -0x60(%rbp),%rsi
    c64a:	e8 f1 f9 ff ff       	call   c040 <$s7ECScore18AnyPlatformStorage_pSgWOc>
    c64f:	48 83 7d b8 00       	cmpq   $0x0,-0x48(%rbp)
    c654:	0f 84 86 00 00 00    	je     c6e0 <$s7ECScore12BasePlatformC8registryAA0C9_Registry_pSgvg+0xd0>
    c65a:	48 8d 7d a0          	lea    -0x60(%rbp),%rdi
    c65e:	48 8d 9d 78 ff ff ff 	lea    -0x88(%rbp),%rbx
    c665:	48 89 de             	mov    %rbx,%rsi
    c668:	e8 13 fa ff ff       	call   c080 <$s7ECScore18AnyPlatformStorage_pWOb>
    c66d:	48 8d 7d c8          	lea    -0x38(%rbp),%rdi
    c671:	e8 0a e3 ff ff       	call   a980 <swift_endAccess@plt>
    c676:	4c 8b 75 90          	mov    -0x70(%rbp),%r14
    c67a:	4c 8b 7d 98          	mov    -0x68(%rbp),%r15
    c67e:	48 89 df             	mov    %rbx,%rdi
    c681:	4c 89 f6             	mov    %r14,%rsi
    c684:	e8 17 fa ff ff       	call   c0a0 <__swift_project_boxed_opaque_existential_1>
    c689:	49 89 c5             	mov    %rax,%r13
    c68c:	48 8d 45 a0          	lea    -0x60(%rbp),%rax
    c690:	31 ff                	xor    %edi,%edi
    c692:	31 f6                	xor    %esi,%esi
    c694:	4c 89 f2             	mov    %r14,%rdx
    c697:	4c 89 f9             	mov    %r15,%rcx
    c69a:	41 ff 57 20          	call   *0x20(%r15)
    c69e:	48 83 7d b8 00       	cmpq   $0x0,-0x48(%rbp)
    c6a3:	74 5b                	je     c700 <$s7ECScore12BasePlatformC8registryAA0C9_Registry_pSgvg+0xf0>
    c6a5:	48 8d 3d bc 4e 03 00 	lea    0x34ebc(%rip),%rdi        # 41568 <$s7ECScore17Platform_Registry_pMD>
    c6ac:	e8 7f f8 ff ff       	call   bf30 <__swift_instantiateConcreteTypeFromMangledName>
    c6b1:	48 8b 15 60 48 03 00 	mov    0x34860(%rip),%rdx        # 40f18 <$sypN>
    c6b8:	48 83 c2 08          	add    $0x8,%rdx
    c6bc:	48 8d 7d c8          	lea    -0x38(%rbp),%rdi
    c6c0:	48 8d 75 a0          	lea    -0x60(%rbp),%rsi
    c6c4:	41 b8 06 00 00 00    	mov    $0x6,%r8d
    c6ca:	48 89 c1             	mov    %rax,%rcx
    c6cd:	e8 8e e3 ff ff       	call   aa60 <swift_dynamicCast@plt>
    c6d2:	84 c0                	test   %al,%al
    c6d4:	74 3a                	je     c710 <$s7ECScore12BasePlatformC8registryAA0C9_Registry_pSgvg+0x100>
    c6d6:	48 8b 5d c8          	mov    -0x38(%rbp),%rbx
    c6da:	4c 8b 75 d0          	mov    -0x30(%rbp),%r14
    c6de:	eb 35                	jmp    c715 <$s7ECScore12BasePlatformC8registryAA0C9_Registry_pSgvg+0x105>
    c6e0:	48 8d 35 71 4e 03 00 	lea    0x34e71(%rip),%rsi        # 41558 <$s7ECScore18AnyPlatformStorage_pSgMD>
    c6e7:	48 8d 7d a0          	lea    -0x60(%rbp),%rdi
    c6eb:	e8 e0 f9 ff ff       	call   c0d0 <$s7ECScore18AnyPlatformStorage_pSgWOhTm>
    c6f0:	48 8d 7d c8          	lea    -0x38(%rbp),%rdi
    c6f4:	e8 87 e2 ff ff       	call   a980 <swift_endAccess@plt>
    c6f9:	31 db                	xor    %ebx,%ebx
    c6fb:	45 31 f6             	xor    %r14d,%r14d
    c6fe:	eb 21                	jmp    c721 <$s7ECScore12BasePlatformC8registryAA0C9_Registry_pSgvg+0x111>
    c700:	48 8d 35 59 4e 03 00 	lea    0x34e59(%rip),%rsi        # 41560 <$sypSgMD>
    c707:	48 8d 7d a0          	lea    -0x60(%rbp),%rdi
    c70b:	e8 c0 f9 ff ff       	call   c0d0 <$s7ECScore18AnyPlatformStorage_pSgWOhTm>
    c710:	31 db                	xor    %ebx,%ebx
    c712:	45 31 f6             	xor    %r14d,%r14d
    c715:	48 8d bd 78 ff ff ff 	lea    -0x88(%rbp),%rdi
    c71c:	e8 ef f8 ff ff       	call   c010 <__swift_destroy_boxed_opaque_existential_0Tm>
    c721:	48 89 d8             	mov    %rbx,%rax
    c724:	4c 89 f2             	mov    %r14,%rdx
    c727:	48 83 c4 70          	add    $0x70,%rsp
    c72b:	5b                   	pop    %rbx
    c72c:	41 5d                	pop    %r13
    c72e:	41 5e                	pop    %r14
    c730:	41 5f                	pop    %r15
    c732:	5d                   	pop    %rbp
    c733:	c3                   	ret
    c734:	0f 0b                	ud2
    c736:	66 2e 0f 1f 84 00 00 	cs nopw 0x0(%rax,%rax,1)
    c73d:	00 00 00 

000000000000c740 <$s7ECScore12BasePlatformC8entitiesAA0C7_Entity_pSgvg>:
    c740:	55                   	push   %rbp
    c741:	48 89 e5             	mov    %rsp,%rbp
    c744:	41 57                	push   %r15
    c746:	41 56                	push   %r14
    c748:	41 55                	push   %r13
    c74a:	53                   	push   %rbx
    c74b:	48 83 ec 70          	sub    $0x70,%rsp
    c74f:	49 8d 7d 10          	lea    0x10(%r13),%rdi
    c753:	48 8d 75 c8          	lea    -0x38(%rbp),%rsi
    c757:	ba 20 00 00 00       	mov    $0x20,%edx
    c75c:	31 c9                	xor    %ecx,%ecx
    c75e:	e8 9d e2 ff ff       	call   aa00 <swift_beginAccess@plt>
    c763:	49 8b 7d 10          	mov    0x10(%r13),%rdi
    c767:	48 83 7f 10 02       	cmpq   $0x2,0x10(%rdi)
    c76c:	0f 82 f2 00 00 00    	jb     c864 <$s7ECScore12BasePlatformC8entitiesAA0C7_Entity_pSgvg+0x124>
    c772:	48 83 c7 48          	add    $0x48,%rdi
    c776:	48 8d 75 a0          	lea    -0x60(%rbp),%rsi
    c77a:	e8 c1 f8 ff ff       	call   c040 <$s7ECScore18AnyPlatformStorage_pSgWOc>
    c77f:	48 83 7d b8 00       	cmpq   $0x0,-0x48(%rbp)
    c784:	0f 84 86 00 00 00    	je     c810 <$s7ECScore12BasePlatformC8entitiesAA0C7_Entity_pSgvg+0xd0>
    c78a:	48 8d 7d a0          	lea    -0x60(%rbp),%rdi
    c78e:	48 8d 9d 78 ff ff ff 	lea    -0x88(%rbp),%rbx
    c795:	48 89 de             	mov    %rbx,%rsi
    c798:	e8 e3 f8 ff ff       	call   c080 <$s7ECScore18AnyPlatformStorage_pWOb>
    c79d:	48 8d 7d c8          	lea    -0x38(%rbp),%rdi
    c7a1:	e8 da e1 ff ff       	call   a980 <swift_endAccess@plt>
    c7a6:	4c 8b 75 90          	mov    -0x70(%rbp),%r14
    c7aa:	4c 8b 7d 98          	mov    -0x68(%rbp),%r15
    c7ae:	48 89 df             	mov    %rbx,%rdi
    c7b1:	4c 89 f6             	mov    %r14,%rsi
    c7b4:	e8 e7 f8 ff ff       	call   c0a0 <__swift_project_boxed_opaque_existential_1>
    c7b9:	49 89 c5             	mov    %rax,%r13
    c7bc:	48 8d 45 a0          	lea    -0x60(%rbp),%rax
    c7c0:	31 ff                	xor    %edi,%edi
    c7c2:	31 f6                	xor    %esi,%esi
    c7c4:	4c 89 f2             	mov    %r14,%rdx
    c7c7:	4c 89 f9             	mov    %r15,%rcx
    c7ca:	41 ff 57 20          	call   *0x20(%r15)
    c7ce:	48 83 7d b8 00       	cmpq   $0x0,-0x48(%rbp)
    c7d3:	74 5b                	je     c830 <$s7ECScore12BasePlatformC8entitiesAA0C7_Entity_pSgvg+0xf0>
    c7d5:	48 8d 3d 94 4d 03 00 	lea    0x34d94(%rip),%rdi        # 41570 <$s7ECScore15Platform_Entity_pMD>
    c7dc:	e8 4f f7 ff ff       	call   bf30 <__swift_instantiateConcreteTypeFromMangledName>
    c7e1:	48 8b 15 30 47 03 00 	mov    0x34730(%rip),%rdx        # 40f18 <$sypN>
    c7e8:	48 83 c2 08          	add    $0x8,%rdx
    c7ec:	48 8d 7d c8          	lea    -0x38(%rbp),%rdi
    c7f0:	48 8d 75 a0          	lea    -0x60(%rbp),%rsi
    c7f4:	41 b8 06 00 00 00    	mov    $0x6,%r8d
    c7fa:	48 89 c1             	mov    %rax,%rcx
    c7fd:	e8 5e e2 ff ff       	call   aa60 <swift_dynamicCast@plt>
    c802:	84 c0                	test   %al,%al
    c804:	74 3a                	je     c840 <$s7ECScore12BasePlatformC8entitiesAA0C7_Entity_pSgvg+0x100>
    c806:	48 8b 5d c8          	mov    -0x38(%rbp),%rbx
    c80a:	4c 8b 75 d0          	mov    -0x30(%rbp),%r14
    c80e:	eb 35                	jmp    c845 <$s7ECScore12BasePlatformC8entitiesAA0C7_Entity_pSgvg+0x105>
    c810:	48 8d 35 41 4d 03 00 	lea    0x34d41(%rip),%rsi        # 41558 <$s7ECScore18AnyPlatformStorage_pSgMD>
    c817:	48 8d 7d a0          	lea    -0x60(%rbp),%rdi
    c81b:	e8 b0 f8 ff ff       	call   c0d0 <$s7ECScore18AnyPlatformStorage_pSgWOhTm>
    c820:	48 8d 7d c8          	lea    -0x38(%rbp),%rdi
    c824:	e8 57 e1 ff ff       	call   a980 <swift_endAccess@plt>
    c829:	31 db                	xor    %ebx,%ebx
    c82b:	45 31 f6             	xor    %r14d,%r14d
    c82e:	eb 21                	jmp    c851 <$s7ECScore12BasePlatformC8entitiesAA0C7_Entity_pSgvg+0x111>
    c830:	48 8d 35 29 4d 03 00 	lea    0x34d29(%rip),%rsi        # 41560 <$sypSgMD>
    c837:	48 8d 7d a0          	lea    -0x60(%rbp),%rdi
    c83b:	e8 90 f8 ff ff       	call   c0d0 <$s7ECScore18AnyPlatformStorage_pSgWOhTm>
    c840:	31 db                	xor    %ebx,%ebx
    c842:	45 31 f6             	xor    %r14d,%r14d
    c845:	48 8d bd 78 ff ff ff 	lea    -0x88(%rbp),%rdi
    c84c:	e8 bf f7 ff ff       	call   c010 <__swift_destroy_boxed_opaque_existential_0Tm>
    c851:	48 89 d8             	mov    %rbx,%rax
    c854:	4c 89 f2             	mov    %r14,%rdx
    c857:	48 83 c4 70          	add    $0x70,%rsp
    c85b:	5b                   	pop    %rbx
    c85c:	41 5d                	pop    %r13
    c85e:	41 5e                	pop    %r14
    c860:	41 5f                	pop    %r15
    c862:	5d                   	pop    %rbp
    c863:	c3                   	ret
    c864:	0f 0b                	ud2
    c866:	66 2e 0f 1f 84 00 00 	cs nopw 0x0(%rax,%rax,1)
    c86d:	00 00 00 

000000000000c870 <$s7ECScore20PlatformReservedSlotOMa>:
    c870:	48 8d 05 39 25 03 00 	lea    0x32539(%rip),%rax        # 3edb0 <$s7ECScore20PlatformReservedSlotON>
    c877:	31 d2                	xor    %edx,%edx
    c879:	c3                   	ret
    c87a:	66 0f 1f 44 00 00    	nopw   0x0(%rax,%rax,1)

000000000000c880 <$s7ECScore13CommandBufferCMi>:
    c880:	e9 cb e0 ff ff       	jmp    a950 <swift_allocateGenericClassMetadata@plt>
    c885:	66 66 2e 0f 1f 84 00 	data16 cs nopw 0x0(%rax,%rax,1)
    c88c:	00 00 00 00 

000000000000c890 <$s7ECScore13CommandBufferCMr>:
    c890:	55                   	push   %rbp
    c891:	48 89 e5             	mov    %rsp,%rbp
    c894:	48 83 ec 10          	sub    $0x10,%rsp
    c898:	4c 8d 47 50          	lea    0x50(%rdi),%r8
    c89c:	48 8d 4d f8          	lea    -0x8(%rbp),%rcx
    c8a0:	31 f6                	xor    %esi,%esi
    c8a2:	31 d2                	xor    %edx,%edx
    c8a4:	e8 87 e0 ff ff       	call   a930 <swift_initClassMetadata2@plt>
    c8a9:	48 85 c0             	test   %rax,%rax
    c8ac:	75 02                	jne    c8b0 <$s7ECScore13CommandBufferCMr+0x20>
    c8ae:	31 d2                	xor    %edx,%edx
    c8b0:	48 83 c4 10          	add    $0x10,%rsp
    c8b4:	5d                   	pop    %rbp
    c8b5:	c3                   	ret
    c8b6:	66 2e 0f 1f 84 00 00 	cs nopw 0x0(%rax,%rax,1)
    c8bd:	00 00 00 

000000000000c8c0 <$s7ECScore13CommandBufferCfd>:
    c8c0:	55                   	push   %rbp
    c8c1:	48 89 e5             	mov    %rsp,%rbp
    c8c4:	4c 89 e8             	mov    %r13,%rax
    c8c7:	5d                   	pop    %rbp
    c8c8:	c3                   	ret
    c8c9:	0f 1f 80 00 00 00 00 	nopl   0x0(%rax)

000000000000c8d0 <$s7ECScore13CommandBufferCfD>:
    c8d0:	55                   	push   %rbp
    c8d1:	48 89 e5             	mov    %rsp,%rbp
    c8d4:	4c 89 ef             	mov    %r13,%rdi
    c8d7:	be 10 00 00 00       	mov    $0x10,%esi
    c8dc:	ba 07 00 00 00       	mov    $0x7,%edx
    c8e1:	5d                   	pop    %rbp
    c8e2:	e9 39 e0 ff ff       	jmp    a920 <swift_deallocClassInstance@plt>
    c8e7:	66 0f 1f 84 00 00 00 	nopw   0x0(%rax,%rax,1)
    c8ee:	00 00 

000000000000c8f0 <$s7ECScore13CommandBufferCMa>:
    c8f0:	4c 8d 05 d5 5d 03 00 	lea    0x35dd5(%rip),%r8        # 426cc <$s7ECScore13CommandBufferCMn>
    c8f7:	e9 54 ef ff ff       	jmp    b850 <__swift_instantiateGenericMetadata>
    c8fc:	0f 1f 40 00          	nopl   0x0(%rax)
    c900:	55                   	push   %rbp
    c901:	48 89 e5             	mov    %rsp,%rbp
    c904:	48 83 ec 20          	sub    $0x20,%rsp
    c908:	48 89 75 e8          	mov    %rsi,-0x18(%rbp)
    c90c:	48 89 55 f0          	mov    %rdx,-0x10(%rbp)
    c910:	48 89 4d f8          	mov    %rcx,-0x8(%rbp)
    c914:	48 8d 75 e8          	lea    -0x18(%rbp),%rsi
    c918:	4c 89 c2             	mov    %r8,%rdx
    c91b:	e8 50 e0 ff ff       	call   a970 <swift_getGenericMetadata@plt>
    c920:	48 83 c4 20          	add    $0x20,%rsp
    c924:	5d                   	pop    %rbp
    c925:	c3                   	ret
    c926:	66 2e 0f 1f 84 00 00 	cs nopw 0x0(%rax,%rax,1)
    c92d:	00 00 00 

000000000000c930 <$s7ECScore14ComponentProxyV13dynamicMemberqd__s15WritableKeyPathCy0C7MembersQzqd__G_tcAA04FastB8ProtocolRzluiM.resume.0>:
    c930:	55                   	push   %rbp
    c931:	48 89 e5             	mov    %rsp,%rbp
    c934:	5d                   	pop    %rbp
    c935:	eb 09                	jmp    c940 <$s7ECScore14ComponentProxyV13dynamicMemberqd__s15WritableKeyPathCy0C7MembersQzqd__G_tcAA04FastB8ProtocolRzluir.resume.0Tm>
    c937:	66 0f 1f 84 00 00 00 	nopw   0x0(%rax,%rax,1)
    c93e:	00 00 

000000000000c940 <$s7ECScore14ComponentProxyV13dynamicMemberqd__s15WritableKeyPathCy0C7MembersQzqd__G_tcAA04FastB8ProtocolRzluir.resume.0Tm>:
    c940:	55                   	push   %rbp
    c941:	48 89 e5             	mov    %rsp,%rbp
    c944:	41 57                	push   %r15
    c946:	41 56                	push   %r14
    c948:	41 54                	push   %r12
    c94a:	53                   	push   %rbx
    c94b:	48 8b 1f             	mov    (%rdi),%rbx
    c94e:	4c 8b 73 30          	mov    0x30(%rbx),%r14
    c952:	4c 8b 7b 20          	mov    0x20(%rbx),%r15
    c956:	4c 8b 63 28          	mov    0x28(%rbx),%r12
    c95a:	48 89 df             	mov    %rbx,%rdi
    c95d:	31 f6                	xor    %esi,%esi
    c95f:	ff 53 38             	call   *0x38(%rbx)
    c962:	4c 89 f7             	mov    %r14,%rdi
    c965:	4c 89 fe             	mov    %r15,%rsi
    c968:	41 ff 54 24 08       	call   *0x8(%r12)
    c96d:	4c 89 f7             	mov    %r14,%rdi
    c970:	e8 fb e0 ff ff       	call   aa70 <free@plt>
    c975:	48 89 df             	mov    %rbx,%rdi
    c978:	5b                   	pop    %rbx
    c979:	41 5c                	pop    %r12
    c97b:	41 5e                	pop    %r14
    c97d:	41 5f                	pop    %r15
    c97f:	5d                   	pop    %rbp
    c980:	e9 eb e0 ff ff       	jmp    aa70 <free@plt>
    c985:	66 66 2e 0f 1f 84 00 	data16 cs nopw 0x0(%rax,%rax,1)
    c98c:	00 00 00 00 

000000000000c990 <$s7ECScore14ComponentProxyV13dynamicMemberqd__s15WritableKeyPathCyxqd__G_tcluiM.resume.0>:
    c990:	55                   	push   %rbp
    c991:	48 89 e5             	mov    %rsp,%rbp
    c994:	53                   	push   %rbx
    c995:	50                   	push   %rax
    c996:	48 8b 1f             	mov    (%rdi),%rbx
    c999:	48 89 df             	mov    %rbx,%rdi
    c99c:	31 f6                	xor    %esi,%esi
    c99e:	ff 53 20             	call   *0x20(%rbx)
    c9a1:	48 89 df             	mov    %rbx,%rdi
    c9a4:	48 83 c4 08          	add    $0x8,%rsp
    c9a8:	5b                   	pop    %rbx
    c9a9:	5d                   	pop    %rbp
    c9aa:	e9 c1 e0 ff ff       	jmp    aa70 <free@plt>
    c9af:	90                   	nop

000000000000c9b0 <$s7ECScore19EntityPlatForm_Ver0C8entities33_960A0A4822ABE1EECDF74C02D1C6F37BLLAA8EntitiesCvpfiTm>:
    c9b0:	55                   	push   %rbp
    c9b1:	48 89 e5             	mov    %rsp,%rbp
    c9b4:	31 ff                	xor    %edi,%edi
    c9b6:	e8 35 23 00 00       	call   ecf0 <$s7ECScore8EntitiesCMa>
    c9bb:	be 28 00 00 00       	mov    $0x28,%esi
    c9c0:	ba 07 00 00 00       	mov    $0x7,%edx
    c9c5:	48 89 c7             	mov    %rax,%rdi
    c9c8:	e8 53 e0 ff ff       	call   aa20 <swift_allocObject@plt>
    c9cd:	48 8b 0d 3c 45 03 00 	mov    0x3453c(%rip),%rcx        # 40f10 <_swiftEmptyArrayStorage>
    c9d4:	48 89 48 10          	mov    %rcx,0x10(%rax)
    c9d8:	48 89 48 18          	mov    %rcx,0x18(%rax)
    c9dc:	48 89 48 20          	mov    %rcx,0x20(%rax)
    c9e0:	5d                   	pop    %rbp
    c9e1:	c3                   	ret
    c9e2:	66 66 66 66 66 2e 0f 	data16 data16 data16 data16 cs nopw 0x0(%rax,%rax,1)
    c9e9:	1f 84 00 00 00 00 00 
    c9f0:	55                   	push   %rbp
    c9f1:	48 89 e5             	mov    %rsp,%rbp
    c9f4:	e8 87 04 00 00       	call   ce80 <$s7ECScore9ComponentPAAE12typeIdStringSSvgZ>
    c9f9:	5d                   	pop    %rbp
    c9fa:	c3                   	ret
    c9fb:	0f 1f 44 00 00       	nopl   0x0(%rax,%rax,1)
    ca00:	55                   	push   %rbp
    ca01:	48 89 e5             	mov    %rsp,%rbp
    ca04:	5d                   	pop    %rbp
    ca05:	e9 a6 04 00 00       	jmp    ceb0 <$s7ECScore9ComponentPAAE3_hss6UInt64VvgZ>
    ca0a:	66 0f 1f 44 00 00    	nopw   0x0(%rax,%rax,1)

000000000000ca10 <$ss11_StringGutsV27_slowEnsureMatchingEncodingySS5IndexVAEF>:
    ca10:	55                   	push   %rbp
    ca11:	48 89 e5             	mov    %rsp,%rbp
    ca14:	41 56                	push   %r14
    ca16:	53                   	push   %rbx
    ca17:	48 89 d1             	mov    %rdx,%rcx
    ca1a:	48 89 f2             	mov    %rsi,%rdx
    ca1d:	48 89 fb             	mov    %rdi,%rbx
    ca20:	48 89 c8             	mov    %rcx,%rax
    ca23:	48 c1 e8 3c          	shr    $0x3c,%rax
    ca27:	48 0f ba e6 3b       	bt     $0x3b,%rsi
    ca2c:	40 0f 93 c7          	setae  %dil
    ca30:	40 20 c7             	and    %al,%dil
    ca33:	48 89 de             	mov    %rbx,%rsi
    ca36:	48 c1 ee 10          	shr    $0x10,%rsi
    ca3a:	41 89 de             	mov    %ebx,%r14d
    ca3d:	41 c1 ee 0e          	shr    $0xe,%r14d
    ca41:	41 83 e6 03          	and    $0x3,%r14d
    ca45:	40 80 ff 01          	cmp    $0x1,%dil
    ca49:	75 22                	jne    ca6d <$ss11_StringGutsV27_slowEnsureMatchingEncodingySS5IndexVAEF+0x5d>
    ca4b:	bf 0f 00 00 00       	mov    $0xf,%edi
    ca50:	e8 2b e0 ff ff       	call   aa80 <$sSS8UTF8ViewV13_foreignIndex_8offsetBySS0D0VAF_SitF@plt>
    ca55:	4d 85 f6             	test   %r14,%r14
    ca58:	74 31                	je     ca8b <$ss11_StringGutsV27_slowEnsureMatchingEncodingySS5IndexVAEF+0x7b>
    ca5a:	41 c1 e6 10          	shl    $0x10,%r14d
    ca5e:	4c 01 f0             	add    %r14,%rax
    ca61:	48 25 00 00 ff ff    	and    $0xffffffffffff0000,%rax
    ca67:	48 83 c8 08          	or     $0x8,%rax
    ca6b:	eb 3f                	jmp    caac <$ss11_StringGutsV27_slowEnsureMatchingEncodingySS5IndexVAEF+0x9c>
    ca6d:	bf 0f 00 00 00       	mov    $0xf,%edi
    ca72:	e8 19 e0 ff ff       	call   aa90 <$sSS9UTF16ViewV5index_8offsetBySS5IndexVAF_SitF@plt>
    ca77:	4d 85 f6             	test   %r14,%r14
    ca7a:	74 22                	je     ca9e <$ss11_StringGutsV27_slowEnsureMatchingEncodingySS5IndexVAEF+0x8e>
    ca7c:	41 c1 e6 10          	shl    $0x10,%r14d
    ca80:	4c 01 f0             	add    %r14,%rax
    ca83:	48 25 00 00 ff ff    	and    $0xffffffffffff0000,%rax
    ca89:	eb 1d                	jmp    caa8 <$ss11_StringGutsV27_slowEnsureMatchingEncodingySS5IndexVAEF+0x98>
    ca8b:	48 83 e0 fc          	and    $0xfffffffffffffffc,%rax
    ca8f:	83 e3 03             	and    $0x3,%ebx
    ca92:	48 09 c3             	or     %rax,%rbx
    ca95:	48 83 cb 08          	or     $0x8,%rbx
    ca99:	48 89 d8             	mov    %rbx,%rax
    ca9c:	eb 0e                	jmp    caac <$ss11_StringGutsV27_slowEnsureMatchingEncodingySS5IndexVAEF+0x9c>
    ca9e:	48 83 e0 fc          	and    $0xfffffffffffffffc,%rax
    caa2:	83 e3 03             	and    $0x3,%ebx
    caa5:	48 09 d8             	or     %rbx,%rax
    caa8:	48 83 c8 04          	or     $0x4,%rax
    caac:	5b                   	pop    %rbx
    caad:	41 5e                	pop    %r14
    caaf:	5d                   	pop    %rbp
    cab0:	c3                   	ret
    cab1:	66 66 66 66 66 66 2e 	data16 data16 data16 data16 data16 cs nopw 0x0(%rax,%rax,1)
    cab8:	0f 1f 84 00 00 00 00 
    cabf:	00 

000000000000cac0 <$sSD17dictionaryLiteralSDyxq_Gx_q_td_tcfCs6UInt64V_7ECScore8EntityIdVTt0g5Tf4g_n>:
    cac0:	55                   	push   %rbp
    cac1:	48 89 e5             	mov    %rsp,%rbp
    cac4:	41 57                	push   %r15
    cac6:	41 56                	push   %r14
    cac8:	41 55                	push   %r13
    caca:	53                   	push   %rbx
    cacb:	48 83 ec 10          	sub    $0x10,%rsp
    cacf:	4c 8b 77 10          	mov    0x10(%rdi),%r14
    cad3:	4d 85 f6             	test   %r14,%r14
    cad6:	0f 84 82 00 00 00    	je     cb5e <$sSD17dictionaryLiteralSDyxq_Gx_q_td_tcfCs6UInt64V_7ECScore8EntityIdVTt0g5Tf4g_n+0x9e>
    cadc:	48 89 fb             	mov    %rdi,%rbx
    cadf:	48 8d 3d a2 4a 03 00 	lea    0x34aa2(%rip),%rdi        # 41588 <$ss18_DictionaryStorageCys6UInt64V7ECScore8EntityIdVGMD>
    cae6:	e8 45 f4 ff ff       	call   bf30 <__swift_instantiateConcreteTypeFromMangledName>
    caeb:	4c 89 f7             	mov    %r14,%rdi
    caee:	49 89 c5             	mov    %rax,%r13
    caf1:	e8 aa df ff ff       	call   aaa0 <$ss18_DictionaryStorageC8allocate8capacityAByxq_GSi_tFZ@plt>
    caf6:	49 89 c5             	mov    %rax,%r13
    caf9:	48 83 c3 28          	add    $0x28,%rbx
    cafd:	0f 1f 00             	nopl   (%rax)
    cb00:	4c 8b 7b f8          	mov    -0x8(%rbx),%r15
    cb04:	0f 10 03             	movups (%rbx),%xmm0
    cb07:	0f 29 45 d0          	movaps %xmm0,-0x30(%rbp)
    cb0b:	4c 89 ff             	mov    %r15,%rdi
    cb0e:	e8 1d 82 00 00       	call   14d30 <$ss22__RawDictionaryStorageC4findys10_HashTableV6BucketV6bucket_Sb5foundtxSHRzlFs6UInt64V_Tg5>
    cb13:	f6 c2 01             	test   $0x1,%dl
    cb16:	75 5d                	jne    cb75 <$sSD17dictionaryLiteralSDyxq_Gx_q_td_tcfCs6UInt64V_7ECScore8EntityIdVTt0g5Tf4g_n+0xb5>
    cb18:	ba 01 00 00 00       	mov    $0x1,%edx
    cb1d:	89 c1                	mov    %eax,%ecx
    cb1f:	48 d3 e2             	shl    %cl,%rdx
    cb22:	48 89 c1             	mov    %rax,%rcx
    cb25:	48 c1 e9 06          	shr    $0x6,%rcx
    cb29:	49 09 54 cd 40       	or     %rdx,0x40(%r13,%rcx,8)
    cb2e:	49 8b 4d 30          	mov    0x30(%r13),%rcx
    cb32:	4c 89 3c c1          	mov    %r15,(%rcx,%rax,8)
    cb36:	49 8b 4d 38          	mov    0x38(%r13),%rcx
    cb3a:	48 c1 e0 04          	shl    $0x4,%rax
    cb3e:	0f 28 45 d0          	movaps -0x30(%rbp),%xmm0
    cb42:	0f 11 04 01          	movups %xmm0,(%rcx,%rax,1)
    cb46:	49 8b 45 10          	mov    0x10(%r13),%rax
    cb4a:	48 ff c0             	inc    %rax
    cb4d:	70 28                	jo     cb77 <$sSD17dictionaryLiteralSDyxq_Gx_q_td_tcfCs6UInt64V_7ECScore8EntityIdVTt0g5Tf4g_n+0xb7>
    cb4f:	49 89 45 10          	mov    %rax,0x10(%r13)
    cb53:	48 83 c3 18          	add    $0x18,%rbx
    cb57:	49 ff ce             	dec    %r14
    cb5a:	75 a4                	jne    cb00 <$sSD17dictionaryLiteralSDyxq_Gx_q_td_tcfCs6UInt64V_7ECScore8EntityIdVTt0g5Tf4g_n+0x40>
    cb5c:	eb 07                	jmp    cb65 <$sSD17dictionaryLiteralSDyxq_Gx_q_td_tcfCs6UInt64V_7ECScore8EntityIdVTt0g5Tf4g_n+0xa5>
    cb5e:	4c 8b 2d bb 43 03 00 	mov    0x343bb(%rip),%r13        # 40f20 <_swiftEmptyDictionarySingleton>
    cb65:	4c 89 e8             	mov    %r13,%rax
    cb68:	48 83 c4 10          	add    $0x10,%rsp
    cb6c:	5b                   	pop    %rbx
    cb6d:	41 5d                	pop    %r13
    cb6f:	41 5e                	pop    %r14
    cb71:	41 5f                	pop    %r15
    cb73:	5d                   	pop    %rbp
    cb74:	c3                   	ret
    cb75:	0f 0b                	ud2
    cb77:	0f 0b                	ud2
    cb79:	0f 1f 80 00 00 00 00 	nopl   0x0(%rax)

000000000000cb80 <$sSD17dictionaryLiteralSDyxq_Gx_q_td_tcfC7ECScore8EntityIdV_AC9Component_pXpTt0g5Tf4g_n>:
    cb80:	55                   	push   %rbp
    cb81:	48 89 e5             	mov    %rsp,%rbp
    cb84:	41 57                	push   %r15
    cb86:	41 56                	push   %r14
    cb88:	41 55                	push   %r13
    cb8a:	41 54                	push   %r12
    cb8c:	53                   	push   %rbx
    cb8d:	48 83 ec 18          	sub    $0x18,%rsp
    cb91:	4c 8b 77 10          	mov    0x10(%rdi),%r14
    cb95:	4d 85 f6             	test   %r14,%r14
    cb98:	0f 84 8c 00 00 00    	je     cc2a <$sSD17dictionaryLiteralSDyxq_Gx_q_td_tcfC7ECScore8EntityIdV_AC9Component_pXpTt0g5Tf4g_n+0xaa>
    cb9e:	48 89 fb             	mov    %rdi,%rbx
    cba1:	48 8d 3d d8 49 03 00 	lea    0x349d8(%rip),%rdi        # 41580 <$ss18_DictionaryStorageCy7ECScore8EntityIdVAC9Component_pXpGMD>
    cba8:	e8 83 f3 ff ff       	call   bf30 <__swift_instantiateConcreteTypeFromMangledName>
    cbad:	4c 89 f7             	mov    %r14,%rdi
    cbb0:	49 89 c5             	mov    %rax,%r13
    cbb3:	e8 e8 de ff ff       	call   aaa0 <$ss18_DictionaryStorageC8allocate8capacityAByxq_GSi_tFZ@plt>
    cbb8:	49 89 c5             	mov    %rax,%r13
    cbbb:	48 83 c3 30          	add    $0x30,%rbx
    cbbf:	90                   	nop
    cbc0:	4c 8b 7b f0          	mov    -0x10(%rbx),%r15
    cbc4:	4c 8b 63 f8          	mov    -0x8(%rbx),%r12
    cbc8:	0f 10 03             	movups (%rbx),%xmm0
    cbcb:	0f 29 45 c0          	movaps %xmm0,-0x40(%rbp)
    cbcf:	4c 89 ff             	mov    %r15,%rdi
    cbd2:	4c 89 e6             	mov    %r12,%rsi
    cbd5:	e8 86 81 00 00       	call   14d60 <$ss22__RawDictionaryStorageC4findys10_HashTableV6BucketV6bucket_Sb5foundtxSHRzlF7ECScore8EntityIdV_Tg5>
    cbda:	f6 c2 01             	test   $0x1,%dl
    cbdd:	75 64                	jne    cc43 <$sSD17dictionaryLiteralSDyxq_Gx_q_td_tcfC7ECScore8EntityIdV_AC9Component_pXpTt0g5Tf4g_n+0xc3>
    cbdf:	ba 01 00 00 00       	mov    $0x1,%edx
    cbe4:	89 c1                	mov    %eax,%ecx
    cbe6:	48 d3 e2             	shl    %cl,%rdx
    cbe9:	48 89 c1             	mov    %rax,%rcx
    cbec:	48 c1 e9 06          	shr    $0x6,%rcx
    cbf0:	49 09 54 cd 40       	or     %rdx,0x40(%r13,%rcx,8)
    cbf5:	49 8b 4d 30          	mov    0x30(%r13),%rcx
    cbf9:	48 c1 e0 04          	shl    $0x4,%rax
    cbfd:	4c 89 3c 01          	mov    %r15,(%rcx,%rax,1)
    cc01:	4c 89 64 01 08       	mov    %r12,0x8(%rcx,%rax,1)
    cc06:	49 8b 4d 38          	mov    0x38(%r13),%rcx
    cc0a:	0f 28 45 c0          	movaps -0x40(%rbp),%xmm0
    cc0e:	0f 11 04 01          	movups %xmm0,(%rcx,%rax,1)
    cc12:	49 8b 45 10          	mov    0x10(%r13),%rax
    cc16:	48 ff c0             	inc    %rax
    cc19:	70 2a                	jo     cc45 <$sSD17dictionaryLiteralSDyxq_Gx_q_td_tcfC7ECScore8EntityIdV_AC9Component_pXpTt0g5Tf4g_n+0xc5>
    cc1b:	49 89 45 10          	mov    %rax,0x10(%r13)
    cc1f:	48 83 c3 20          	add    $0x20,%rbx
    cc23:	49 ff ce             	dec    %r14
    cc26:	75 98                	jne    cbc0 <$sSD17dictionaryLiteralSDyxq_Gx_q_td_tcfC7ECScore8EntityIdV_AC9Component_pXpTt0g5Tf4g_n+0x40>
    cc28:	eb 07                	jmp    cc31 <$sSD17dictionaryLiteralSDyxq_Gx_q_td_tcfC7ECScore8EntityIdV_AC9Component_pXpTt0g5Tf4g_n+0xb1>
    cc2a:	4c 8b 2d ef 42 03 00 	mov    0x342ef(%rip),%r13        # 40f20 <_swiftEmptyDictionarySingleton>
    cc31:	4c 89 e8             	mov    %r13,%rax
    cc34:	48 83 c4 18          	add    $0x18,%rsp
    cc38:	5b                   	pop    %rbx
    cc39:	41 5c                	pop    %r12
    cc3b:	41 5d                	pop    %r13
    cc3d:	41 5e                	pop    %r14
    cc3f:	41 5f                	pop    %r15
    cc41:	5d                   	pop    %rbp
    cc42:	c3                   	ret
    cc43:	0f 0b                	ud2
    cc45:	0f 0b                	ud2
    cc47:	66 0f 1f 84 00 00 00 	nopw   0x0(%rax,%rax,1)
    cc4e:	00 00 

000000000000cc50 <$s7ECScore14ComponentProxyVMi>:
    cc50:	b9 10 00 00 00       	mov    $0x10,%ecx
    cc55:	e9 06 dd ff ff       	jmp    a960 <swift_allocateGenericValueMetadata@plt>
    cc5a:	66 0f 1f 44 00 00    	nopw   0x0(%rax,%rax,1)
    cc60:	55                   	push   %rbp
    cc61:	48 89 e5             	mov    %rsp,%rbp
    cc64:	48 89 f8             	mov    %rdi,%rax
    cc67:	48 8b 0e             	mov    (%rsi),%rcx
    cc6a:	48 89 0f             	mov    %rcx,(%rdi)
    cc6d:	5d                   	pop    %rbp
    cc6e:	c3                   	ret
    cc6f:	90                   	nop
    cc70:	55                   	push   %rbp
    cc71:	48 89 e5             	mov    %rsp,%rbp
    cc74:	5d                   	pop    %rbp
    cc75:	c3                   	ret
    cc76:	66 2e 0f 1f 84 00 00 	cs nopw 0x0(%rax,%rax,1)
    cc7d:	00 00 00 

000000000000cc80 <$s7ECScore14ComponentProxyVwet>:
    cc80:	55                   	push   %rbp
    cc81:	48 89 e5             	mov    %rsp,%rbp
    cc84:	85 f6                	test   %esi,%esi
    cc86:	74 1a                	je     cca2 <$s7ECScore14ComponentProxyVwet+0x22>
    cc88:	83 fe 01             	cmp    $0x1,%esi
    cc8b:	74 0c                	je     cc99 <$s7ECScore14ComponentProxyVwet+0x19>
    cc8d:	80 7f 08 00          	cmpb   $0x0,0x8(%rdi)
    cc91:	74 06                	je     cc99 <$s7ECScore14ComponentProxyVwet+0x19>
    cc93:	8b 07                	mov    (%rdi),%eax
    cc95:	ff c0                	inc    %eax
    cc97:	eb 0e                	jmp    cca7 <$s7ECScore14ComponentProxyVwet+0x27>
    cc99:	31 c0                	xor    %eax,%eax
    cc9b:	48 3b 07             	cmp    (%rdi),%rax
    cc9e:	19 c0                	sbb    %eax,%eax
    cca0:	eb 05                	jmp    cca7 <$s7ECScore14ComponentProxyVwet+0x27>
    cca2:	b8 ff ff ff ff       	mov    $0xffffffff,%eax
    cca7:	ff c0                	inc    %eax
    cca9:	5d                   	pop    %rbp
    ccaa:	c3                   	ret
    ccab:	0f 1f 44 00 00       	nopl   0x0(%rax,%rax,1)

000000000000ccb0 <$s7ECScore14ComponentProxyVwst>:
    ccb0:	55                   	push   %rbp
    ccb1:	48 89 e5             	mov    %rsp,%rbp
    ccb4:	83 fe 01             	cmp    $0x1,%esi
    ccb7:	77 16                	ja     cccf <$s7ECScore14ComponentProxyVwst+0x1f>
    ccb9:	83 fa 02             	cmp    $0x2,%edx
    ccbc:	72 04                	jb     ccc2 <$s7ECScore14ComponentProxyVwst+0x12>
    ccbe:	c6 47 08 00          	movb   $0x0,0x8(%rdi)
    ccc2:	85 f6                	test   %esi,%esi
    ccc4:	74 18                	je     ccde <$s7ECScore14ComponentProxyVwst+0x2e>
    ccc6:	48 c7 07 00 00 00 00 	movq   $0x0,(%rdi)
    cccd:	5d                   	pop    %rbp
    ccce:	c3                   	ret
    cccf:	83 c6 fe             	add    $0xfffffffe,%esi
    ccd2:	48 89 37             	mov    %rsi,(%rdi)
    ccd5:	83 fa 02             	cmp    $0x2,%edx
    ccd8:	72 04                	jb     ccde <$s7ECScore14ComponentProxyVwst+0x2e>
    ccda:	c6 47 08 01          	movb   $0x1,0x8(%rdi)
    ccde:	5d                   	pop    %rbp
    ccdf:	c3                   	ret

000000000000cce0 <$sSD17dictionaryLiteralSDyxq_Gx_q_td_tcfCSO_SiTt0g5Tf4g_n>:
    cce0:	55                   	push   %rbp
    cce1:	48 89 e5             	mov    %rsp,%rbp
    cce4:	41 57                	push   %r15
    cce6:	41 56                	push   %r14
    cce8:	41 55                	push   %r13
    ccea:	41 54                	push   %r12
    ccec:	53                   	push   %rbx
    cced:	50                   	push   %rax
    ccee:	4c 8b 77 10          	mov    0x10(%rdi),%r14
    ccf2:	4d 85 f6             	test   %r14,%r14
    ccf5:	74 7b                	je     cd72 <$sSD17dictionaryLiteralSDyxq_Gx_q_td_tcfCSO_SiTt0g5Tf4g_n+0x92>
    ccf7:	48 89 fb             	mov    %rdi,%rbx
    ccfa:	48 8d 3d 77 48 03 00 	lea    0x34877(%rip),%rdi        # 41578 <$ss18_DictionaryStorageCySOSiGMD>
    cd01:	e8 2a f2 ff ff       	call   bf30 <__swift_instantiateConcreteTypeFromMangledName>
    cd06:	4c 89 f7             	mov    %r14,%rdi
    cd09:	49 89 c5             	mov    %rax,%r13
    cd0c:	e8 8f dd ff ff       	call   aaa0 <$ss18_DictionaryStorageC8allocate8capacityAByxq_GSi_tFZ@plt>
    cd11:	49 89 c5             	mov    %rax,%r13
    cd14:	48 83 c3 28          	add    $0x28,%rbx
    cd18:	0f 1f 84 00 00 00 00 	nopl   0x0(%rax,%rax,1)
    cd1f:	00 
    cd20:	4c 8b 7b f8          	mov    -0x8(%rbx),%r15
    cd24:	4c 8b 23             	mov    (%rbx),%r12
    cd27:	4c 89 ff             	mov    %r15,%rdi
    cd2a:	e8 91 80 00 00       	call   14dc0 <$ss22__RawDictionaryStorageC4findys10_HashTableV6BucketV6bucket_Sb5foundtxSHRzlFSO_Tg5>
    cd2f:	f6 c2 01             	test   $0x1,%dl
    cd32:	75 57                	jne    cd8b <$sSD17dictionaryLiteralSDyxq_Gx_q_td_tcfCSO_SiTt0g5Tf4g_n+0xab>
    cd34:	ba 01 00 00 00       	mov    $0x1,%edx
    cd39:	89 c1                	mov    %eax,%ecx
    cd3b:	48 d3 e2             	shl    %cl,%rdx
    cd3e:	48 89 c1             	mov    %rax,%rcx
    cd41:	48 c1 e9 06          	shr    $0x6,%rcx
    cd45:	49 09 54 cd 40       	or     %rdx,0x40(%r13,%rcx,8)
    cd4a:	49 8b 4d 30          	mov    0x30(%r13),%rcx
    cd4e:	4c 89 3c c1          	mov    %r15,(%rcx,%rax,8)
    cd52:	49 8b 4d 38          	mov    0x38(%r13),%rcx
    cd56:	4c 89 24 c1          	mov    %r12,(%rcx,%rax,8)
    cd5a:	49 8b 45 10          	mov    0x10(%r13),%rax
    cd5e:	48 ff c0             	inc    %rax
    cd61:	70 2a                	jo     cd8d <$sSD17dictionaryLiteralSDyxq_Gx_q_td_tcfCSO_SiTt0g5Tf4g_n+0xad>
    cd63:	49 89 45 10          	mov    %rax,0x10(%r13)
    cd67:	48 83 c3 10          	add    $0x10,%rbx
    cd6b:	49 ff ce             	dec    %r14
    cd6e:	75 b0                	jne    cd20 <$sSD17dictionaryLiteralSDyxq_Gx_q_td_tcfCSO_SiTt0g5Tf4g_n+0x40>
    cd70:	eb 07                	jmp    cd79 <$sSD17dictionaryLiteralSDyxq_Gx_q_td_tcfCSO_SiTt0g5Tf4g_n+0x99>
    cd72:	4c 8b 2d a7 41 03 00 	mov    0x341a7(%rip),%r13        # 40f20 <_swiftEmptyDictionarySingleton>
    cd79:	4c 89 e8             	mov    %r13,%rax
    cd7c:	48 83 c4 08          	add    $0x8,%rsp
    cd80:	5b                   	pop    %rbx
    cd81:	41 5c                	pop    %r12
    cd83:	41 5d                	pop    %r13
    cd85:	41 5e                	pop    %r14
    cd87:	41 5f                	pop    %r15
    cd89:	5d                   	pop    %rbp
    cd8a:	c3                   	ret
    cd8b:	0f 0b                	ud2
    cd8d:	0f 0b                	ud2
    cd8f:	90                   	nop
    cd90:	48 8b 07             	mov    (%rdi),%rax
    cd93:	48 85 c0             	test   %rax,%rax
    cd96:	78 01                	js     cd99 <$sSD17dictionaryLiteralSDyxq_Gx_q_td_tcfCSO_SiTt0g5Tf4g_n+0xb9>
    cd98:	c3                   	ret
    cd99:	55                   	push   %rbp
    cd9a:	48 89 e5             	mov    %rsp,%rbp
    cd9d:	53                   	push   %rbx
    cd9e:	50                   	push   %rax
    cd9f:	48 89 c6             	mov    %rax,%rsi
    cda2:	48 c1 fe 20          	sar    $0x20,%rsi
    cda6:	48 f7 de             	neg    %rsi
    cda9:	48 98                	cltq
    cdab:	48 01 f8             	add    %rdi,%rax
    cdae:	48 89 fb             	mov    %rdi,%rbx
    cdb1:	48 89 c7             	mov    %rax,%rdi
    cdb4:	31 d2                	xor    %edx,%edx
    cdb6:	31 c9                	xor    %ecx,%ecx
    cdb8:	e8 73 dc ff ff       	call   aa30 <swift_getTypeByMangledNameInContext2@plt>
    cdbd:	48 89 03             	mov    %rax,(%rbx)
    cdc0:	48 83 c4 08          	add    $0x8,%rsp
    cdc4:	5b                   	pop    %rbx
    cdc5:	5d                   	pop    %rbp
    cdc6:	c3                   	ret
    cdc7:	66 0f 1f 84 00 00 00 	nopw   0x0(%rax,%rax,1)
    cdce:	00 00 
    cdd0:	55                   	push   %rbp
    cdd1:	48 89 e5             	mov    %rsp,%rbp
    cdd4:	48 83 ec 20          	sub    $0x20,%rsp
    cdd8:	48 89 75 e8          	mov    %rsi,-0x18(%rbp)
    cddc:	48 89 55 f0          	mov    %rdx,-0x10(%rbp)
    cde0:	48 89 4d f8          	mov    %rcx,-0x8(%rbp)
    cde4:	48 8d 75 e8          	lea    -0x18(%rbp),%rsi
    cde8:	4c 89 c2             	mov    %r8,%rdx
    cdeb:	e8 80 db ff ff       	call   a970 <swift_getGenericMetadata@plt>
    cdf0:	48 83 c4 20          	add    $0x20,%rsp
    cdf4:	5d                   	pop    %rbp
    cdf5:	c3                   	ret
    cdf6:	66 2e 0f 1f 84 00 00 	cs nopw 0x0(%rax,%rax,1)
    cdfd:	00 00 00 

000000000000ce00 <$s7ECScore14ComponentProxyV13dynamicMemberqd__s15WritableKeyPathCy0C7MembersQzqd__G_tcAA04FastB8ProtocolRzluir.resume.0>:
    ce00:	55                   	push   %rbp
    ce01:	48 89 e5             	mov    %rsp,%rbp
    ce04:	5d                   	pop    %rbp
    ce05:	e9 26 fb ff ff       	jmp    c930 <$s7ECScore14ComponentProxyV13dynamicMemberqd__s15WritableKeyPathCy0C7MembersQzqd__G_tcAA04FastB8ProtocolRzluiM.resume.0>
    ce0a:	66 0f 1f 44 00 00    	nopw   0x0(%rax,%rax,1)

000000000000ce10 <$s7ECScore14ComponentProxyV13dynamicMemberqd__s15WritableKeyPathCyxqd__G_tcluir.resume.0>:
    ce10:	55                   	push   %rbp
    ce11:	48 89 e5             	mov    %rsp,%rbp
    ce14:	5d                   	pop    %rbp
    ce15:	e9 16 fb ff ff       	jmp    c930 <$s7ECScore14ComponentProxyV13dynamicMemberqd__s15WritableKeyPathCy0C7MembersQzqd__G_tcAA04FastB8ProtocolRzluiM.resume.0>
    ce1a:	66 0f 1f 44 00 00    	nopw   0x0(%rax,%rax,1)

000000000000ce20 <$s7ECScore19EntityPlatForm_Ver0CAA9ComponentA2aDP12typeIdStringSSvgZTW>:
    ce20:	55                   	push   %rbp
    ce21:	48 89 e5             	mov    %rsp,%rbp
    ce24:	5d                   	pop    %rbp
    ce25:	e9 c6 fb ff ff       	jmp    c9f0 <$s7ECScore19EntityPlatForm_Ver0C8entities33_960A0A4822ABE1EECDF74C02D1C6F37BLLAA8EntitiesCvpfiTm+0x40>
    ce2a:	66 0f 1f 44 00 00    	nopw   0x0(%rax,%rax,1)

000000000000ce30 <$s7ECScore16RegistryPlatformCAA9ComponentA2aDP12typeIdStringSSvgZTW>:
    ce30:	55                   	push   %rbp
    ce31:	48 89 e5             	mov    %rsp,%rbp
    ce34:	5d                   	pop    %rbp
    ce35:	e9 b6 fb ff ff       	jmp    c9f0 <$s7ECScore19EntityPlatForm_Ver0C8entities33_960A0A4822ABE1EECDF74C02D1C6F37BLLAA8EntitiesCvpfiTm+0x40>
    ce3a:	66 0f 1f 44 00 00    	nopw   0x0(%rax,%rax,1)

000000000000ce40 <$s7ECScore19EntityPlatForm_Ver0CAA9ComponentA2aDP3_hss6UInt64VvgZTW>:
    ce40:	55                   	push   %rbp
    ce41:	48 89 e5             	mov    %rsp,%rbp
    ce44:	5d                   	pop    %rbp
    ce45:	e9 b6 fb ff ff       	jmp    ca00 <$s7ECScore19EntityPlatForm_Ver0C8entities33_960A0A4822ABE1EECDF74C02D1C6F37BLLAA8EntitiesCvpfiTm+0x50>
    ce4a:	66 0f 1f 44 00 00    	nopw   0x0(%rax,%rax,1)

000000000000ce50 <$s7ECScore16RegistryPlatformCAA9ComponentA2aDP3_hss6UInt64VvgZTW>:
    ce50:	55                   	push   %rbp
    ce51:	48 89 e5             	mov    %rsp,%rbp
    ce54:	5d                   	pop    %rbp
    ce55:	e9 a6 fb ff ff       	jmp    ca00 <$s7ECScore19EntityPlatForm_Ver0C8entities33_960A0A4822ABE1EECDF74C02D1C6F37BLLAA8EntitiesCvpfiTm+0x50>
    ce5a:	66 0f 1f 44 00 00    	nopw   0x0(%rax,%rax,1)

000000000000ce60 <$s7ECScore12PFStorageBoxVyxGAA9ComponentA2aEP12typeIdStringSSvgZTW>:
    ce60:	55                   	push   %rbp
    ce61:	48 89 e5             	mov    %rsp,%rbp
    ce64:	5d                   	pop    %rbp
    ce65:	e9 86 fb ff ff       	jmp    c9f0 <$s7ECScore19EntityPlatForm_Ver0C8entities33_960A0A4822ABE1EECDF74C02D1C6F37BLLAA8EntitiesCvpfiTm+0x40>
    ce6a:	66 0f 1f 44 00 00    	nopw   0x0(%rax,%rax,1)

000000000000ce70 <$s7ECScore12PFStorageBoxVyxGAA9ComponentA2aEP3_hss6UInt64VvgZTW>:
    ce70:	55                   	push   %rbp
    ce71:	48 89 e5             	mov    %rsp,%rbp
    ce74:	5d                   	pop    %rbp
    ce75:	e9 86 fb ff ff       	jmp    ca00 <$s7ECScore19EntityPlatForm_Ver0C8entities33_960A0A4822ABE1EECDF74C02D1C6F37BLLAA8EntitiesCvpfiTm+0x50>
    ce7a:	66 0f 1f 44 00 00    	nopw   0x0(%rax,%rax,1)

000000000000ce80 <$s7ECScore9ComponentPAAE12typeIdStringSSvgZ>:
    ce80:	55                   	push   %rbp
    ce81:	48 89 e5             	mov    %rsp,%rbp
    ce84:	48 83 ec 10          	sub    $0x10,%rsp
    ce88:	48 89 7d f8          	mov    %rdi,-0x8(%rbp)
    ce8c:	e8 1f dc ff ff       	call   aab0 <swift_getMetatypeMetadata@plt>
    ce91:	48 8d 7d f8          	lea    -0x8(%rbp),%rdi
    ce95:	48 89 c6             	mov    %rax,%rsi
    ce98:	e8 23 dc ff ff       	call   aac0 <$sSS10reflectingSSx_tclufC@plt>
    ce9d:	48 83 c4 10          	add    $0x10,%rsp
    cea1:	5d                   	pop    %rbp
    cea2:	c3                   	ret
    cea3:	66 66 66 66 2e 0f 1f 	data16 data16 data16 cs nopw 0x0(%rax,%rax,1)
    ceaa:	84 00 00 00 00 00 

000000000000ceb0 <$s7ECScore9ComponentPAAE3_hss6UInt64VvgZ>:
    ceb0:	55                   	push   %rbp
    ceb1:	48 89 e5             	mov    %rsp,%rbp
    ceb4:	41 56                	push   %r14
    ceb6:	53                   	push   %rbx
    ceb7:	ff 56 10             	call   *0x10(%rsi)
    ceba:	48 89 d3             	mov    %rdx,%rbx
    cebd:	48 89 c7             	mov    %rax,%rdi
    cec0:	48 89 d6             	mov    %rdx,%rsi
    cec3:	e8 18 00 00 00       	call   cee0 <$sSS7ECScoreE12_hs_fnv1a_64s6UInt64Vvg>
    cec8:	49 89 c6             	mov    %rax,%r14
    cecb:	48 89 df             	mov    %rbx,%rdi
    cece:	e8 fd db ff ff       	call   aad0 <swift_bridgeObjectRelease@plt>
    ced3:	4c 89 f0             	mov    %r14,%rax
    ced6:	5b                   	pop    %rbx
    ced7:	41 5e                	pop    %r14
    ced9:	5d                   	pop    %rbp
    ceda:	c3                   	ret
    cedb:	0f 1f 44 00 00       	nopl   0x0(%rax,%rax,1)

000000000000cee0 <$sSS7ECScoreE12_hs_fnv1a_64s6UInt64Vvg>:
    cee0:	55                   	push   %rbp
    cee1:	48 89 e5             	mov    %rsp,%rbp
    cee4:	41 57                	push   %r15
    cee6:	41 56                	push   %r14
    cee8:	41 55                	push   %r13
    ceea:	41 54                	push   %r12
    ceec:	53                   	push   %rbx
    ceed:	48 83 ec 48          	sub    $0x48,%rsp
    cef1:	48 bb 25 23 22 84 e4 	movabs $0xcbf29ce484222325,%rbx
    cef8:	9c f2 cb 
    cefb:	48 89 f2             	mov    %rsi,%rdx
    cefe:	48 c1 ea 38          	shr    $0x38,%rdx
    cf02:	83 e2 0f             	and    $0xf,%edx
    cf05:	48 b8 ff ff ff ff ff 	movabs $0xffffffffffff,%rax
    cf0c:	ff 00 00 
    cf0f:	48 21 f8             	and    %rdi,%rax
    cf12:	48 0f ba e6 3d       	bt     $0x3d,%rsi
    cf17:	48 0f 43 d0          	cmovae %rax,%rdx
    cf1b:	48 85 d2             	test   %rdx,%rdx
    cf1e:	0f 84 55 02 00 00    	je     d179 <$sSS7ECScoreE12_hs_fnv1a_64s6UInt64Vvg+0x299>
    cf24:	49 89 f6             	mov    %rsi,%r14
    cf27:	48 be 00 00 00 00 00 	movabs $0x1000000000000000,%rsi
    cf2e:	00 00 10 
    cf31:	49 85 f6             	test   %rsi,%r14
    cf34:	0f 94 c0             	sete   %al
    cf37:	48 89 f9             	mov    %rdi,%rcx
    cf3a:	48 c1 e9 3b          	shr    $0x3b,%rcx
    cf3e:	83 e1 01             	and    $0x1,%ecx
    cf41:	08 c1                	or     %al,%cl
    cf43:	41 bf 04 00 00 00    	mov    $0x4,%r15d
    cf49:	49 d3 e7             	shl    %cl,%r15
    cf4c:	4c 8d 04 95 00 00 00 	lea    0x0(,%rdx,4),%r8
    cf53:	00 
    cf54:	48 b8 ff ff ff ff ff 	movabs $0xffffffffffffff,%rax
    cf5b:	ff ff 00 
    cf5e:	4c 21 f0             	and    %r14,%rax
    cf61:	48 89 45 a8          	mov    %rax,-0x58(%rbp)
    cf65:	48 8d 46 ff          	lea    -0x1(%rsi),%rax
    cf69:	4c 21 f0             	and    %r14,%rax
    cf6c:	48 83 c0 20          	add    $0x20,%rax
    cf70:	48 89 45 b0          	mov    %rax,-0x50(%rbp)
    cf74:	b9 0f 00 00 00       	mov    $0xf,%ecx
    cf79:	49 b9 b3 01 00 00 00 	movabs $0x100000001b3,%r9
    cf80:	01 00 00 
    cf83:	48 89 7d d0          	mov    %rdi,-0x30(%rbp)
    cf87:	48 89 55 b8          	mov    %rdx,-0x48(%rbp)
    cf8b:	eb 2c                	jmp    cfb9 <$sSS7ECScoreE12_hs_fnv1a_64s6UInt64Vvg+0xd9>
    cf8d:	0f 1f 00             	nopl   (%rax)
    cf90:	48 81 e1 00 00 ff ff 	and    $0xffffffffffff0000,%rcx
    cf97:	48 81 c1 04 00 01 00 	add    $0x10004,%rcx
    cf9e:	41 0f b6 c4          	movzbl %r12b,%eax
    cfa2:	48 31 c3             	xor    %rax,%rbx
    cfa5:	49 0f af d9          	imul   %r9,%rbx
    cfa9:	48 89 c8             	mov    %rcx,%rax
    cfac:	48 c1 e8 0e          	shr    $0xe,%rax
    cfb0:	4c 39 c0             	cmp    %r8,%rax
    cfb3:	0f 84 c0 01 00 00    	je     d179 <$sSS7ECScoreE12_hs_fnv1a_64s6UInt64Vvg+0x299>
    cfb9:	41 89 cd             	mov    %ecx,%r13d
    cfbc:	41 83 e5 0c          	and    $0xc,%r13d
    cfc0:	48 89 c8             	mov    %rcx,%rax
    cfc3:	4d 39 fd             	cmp    %r15,%r13
    cfc6:	0f 84 c6 00 00 00    	je     d092 <$sSS7ECScoreE12_hs_fnv1a_64s6UInt64Vvg+0x1b2>
    cfcc:	49 89 c4             	mov    %rax,%r12
    cfcf:	49 c1 ec 10          	shr    $0x10,%r12
    cfd3:	49 39 d4             	cmp    %rdx,%r12
    cfd6:	0f 83 af 01 00 00    	jae    d18b <$sSS7ECScoreE12_hs_fnv1a_64s6UInt64Vvg+0x2ab>
    cfdc:	49 85 f6             	test   %rsi,%r14
    cfdf:	0f 85 eb 00 00 00    	jne    d0d0 <$sSS7ECScoreE12_hs_fnv1a_64s6UInt64Vvg+0x1f0>
    cfe5:	49 0f ba e6 3d       	bt     $0x3d,%r14
    cfea:	72 24                	jb     d010 <$sSS7ECScoreE12_hs_fnv1a_64s6UInt64Vvg+0x130>
    cfec:	48 8b 45 b0          	mov    -0x50(%rbp),%rax
    cff0:	48 85 f7             	test   %rsi,%rdi
    cff3:	0f 84 4b 01 00 00    	je     d144 <$sSS7ECScoreE12_hs_fnv1a_64s6UInt64Vvg+0x264>
    cff9:	46 0f b6 24 20       	movzbl (%rax,%r12,1),%r12d
    cffe:	45 39 fd             	cmp    %r15d,%r13d
    d001:	75 28                	jne    d02b <$sSS7ECScoreE12_hs_fnv1a_64s6UInt64Vvg+0x14b>
    d003:	e9 07 01 00 00       	jmp    d10f <$sSS7ECScoreE12_hs_fnv1a_64s6UInt64Vvg+0x22f>
    d008:	0f 1f 84 00 00 00 00 	nopl   0x0(%rax,%rax,1)
    d00f:	00 
    d010:	48 89 7d 98          	mov    %rdi,-0x68(%rbp)
    d014:	48 8b 45 a8          	mov    -0x58(%rbp),%rax
    d018:	48 89 45 a0          	mov    %rax,-0x60(%rbp)
    d01c:	46 0f b6 64 25 98    	movzbl -0x68(%rbp,%r12,1),%r12d
    d022:	45 39 fd             	cmp    %r15d,%r13d
    d025:	0f 84 e4 00 00 00    	je     d10f <$sSS7ECScoreE12_hs_fnv1a_64s6UInt64Vvg+0x22f>
    d02b:	49 85 f6             	test   %rsi,%r14
    d02e:	48 8b 55 b8          	mov    -0x48(%rbp),%rdx
    d032:	0f 84 58 ff ff ff    	je     cf90 <$sSS7ECScoreE12_hs_fnv1a_64s6UInt64Vvg+0xb0>
    d038:	48 89 c8             	mov    %rcx,%rax
    d03b:	48 c1 e8 10          	shr    $0x10,%rax
    d03f:	48 39 d0             	cmp    %rdx,%rax
    d042:	0f 83 45 01 00 00    	jae    d18d <$sSS7ECScoreE12_hs_fnv1a_64s6UInt64Vvg+0x2ad>
    d048:	48 89 cf             	mov    %rcx,%rdi
    d04b:	48 8b 75 d0          	mov    -0x30(%rbp),%rsi
    d04f:	4c 89 f2             	mov    %r14,%rdx
    d052:	4d 89 c5             	mov    %r8,%r13
    d055:	44 88 65 c8          	mov    %r12b,-0x38(%rbp)
    d059:	4d 89 f4             	mov    %r14,%r12
    d05c:	4d 89 fe             	mov    %r15,%r14
    d05f:	4d 89 cf             	mov    %r9,%r15
    d062:	e8 79 da ff ff       	call   aae0 <$sSS8UTF8ViewV13_foreignIndex5afterSS0D0VAF_tF@plt>
    d067:	4d 89 f9             	mov    %r15,%r9
    d06a:	4d 89 f7             	mov    %r14,%r15
    d06d:	4d 89 e6             	mov    %r12,%r14
    d070:	44 0f b6 65 c8       	movzbl -0x38(%rbp),%r12d
    d075:	4d 89 e8             	mov    %r13,%r8
    d078:	48 be 00 00 00 00 00 	movabs $0x1000000000000000,%rsi
    d07f:	00 00 10 
    d082:	48 8b 55 b8          	mov    -0x48(%rbp),%rdx
    d086:	48 8b 7d d0          	mov    -0x30(%rbp),%rdi
    d08a:	48 89 c1             	mov    %rax,%rcx
    d08d:	e9 0c ff ff ff       	jmp    cf9e <$sSS7ECScoreE12_hs_fnv1a_64s6UInt64Vvg+0xbe>
    d092:	49 89 cc             	mov    %rcx,%r12
    d095:	48 89 cf             	mov    %rcx,%rdi
    d098:	48 8b 75 d0          	mov    -0x30(%rbp),%rsi
    d09c:	4c 89 f2             	mov    %r14,%rdx
    d09f:	4c 89 45 c8          	mov    %r8,-0x38(%rbp)
    d0a3:	e8 68 f9 ff ff       	call   ca10 <$ss11_StringGutsV27_slowEnsureMatchingEncodingySS5IndexVAEF>
    d0a8:	49 b9 b3 01 00 00 00 	movabs $0x100000001b3,%r9
    d0af:	01 00 00 
    d0b2:	4c 8b 45 c8          	mov    -0x38(%rbp),%r8
    d0b6:	48 be 00 00 00 00 00 	movabs $0x1000000000000000,%rsi
    d0bd:	00 00 10 
    d0c0:	48 8b 55 b8          	mov    -0x48(%rbp),%rdx
    d0c4:	48 8b 7d d0          	mov    -0x30(%rbp),%rdi
    d0c8:	4c 89 e1             	mov    %r12,%rcx
    d0cb:	e9 fc fe ff ff       	jmp    cfcc <$sSS7ECScoreE12_hs_fnv1a_64s6UInt64Vvg+0xec>
    d0d0:	48 89 4d c0          	mov    %rcx,-0x40(%rbp)
    d0d4:	48 89 c7             	mov    %rax,%rdi
    d0d7:	48 8b 75 d0          	mov    -0x30(%rbp),%rsi
    d0db:	4c 89 f2             	mov    %r14,%rdx
    d0de:	4c 89 45 c8          	mov    %r8,-0x38(%rbp)
    d0e2:	4d 89 cc             	mov    %r9,%r12
    d0e5:	e8 06 da ff ff       	call   aaf0 <$sSS8UTF8ViewV17_foreignSubscript8positions5UInt8VSS5IndexV_tF@plt>
    d0ea:	4d 89 e1             	mov    %r12,%r9
    d0ed:	4c 8b 45 c8          	mov    -0x38(%rbp),%r8
    d0f1:	48 be 00 00 00 00 00 	movabs $0x1000000000000000,%rsi
    d0f8:	00 00 10 
    d0fb:	48 8b 7d d0          	mov    -0x30(%rbp),%rdi
    d0ff:	48 8b 4d c0          	mov    -0x40(%rbp),%rcx
    d103:	41 89 c4             	mov    %eax,%r12d
    d106:	45 39 fd             	cmp    %r15d,%r13d
    d109:	0f 85 1c ff ff ff    	jne    d02b <$sSS7ECScoreE12_hs_fnv1a_64s6UInt64Vvg+0x14b>
    d10f:	48 89 cf             	mov    %rcx,%rdi
    d112:	48 8b 75 d0          	mov    -0x30(%rbp),%rsi
    d116:	4c 89 f2             	mov    %r14,%rdx
    d119:	4d 89 c5             	mov    %r8,%r13
    d11c:	e8 ef f8 ff ff       	call   ca10 <$ss11_StringGutsV27_slowEnsureMatchingEncodingySS5IndexVAEF>
    d121:	49 b9 b3 01 00 00 00 	movabs $0x100000001b3,%r9
    d128:	01 00 00 
    d12b:	4d 89 e8             	mov    %r13,%r8
    d12e:	48 be 00 00 00 00 00 	movabs $0x1000000000000000,%rsi
    d135:	00 00 10 
    d138:	48 8b 7d d0          	mov    -0x30(%rbp),%rdi
    d13c:	48 89 c1             	mov    %rax,%rcx
    d13f:	e9 e7 fe ff ff       	jmp    d02b <$sSS7ECScoreE12_hs_fnv1a_64s6UInt64Vvg+0x14b>
    d144:	48 89 4d c0          	mov    %rcx,-0x40(%rbp)
    d148:	4c 89 f6             	mov    %r14,%rsi
    d14b:	4c 89 45 c8          	mov    %r8,-0x38(%rbp)
    d14f:	e8 ac d9 ff ff       	call   ab00 <$ss13_StringObjectV10sharedUTF8SRys5UInt8VGvg@plt>
    d154:	49 b9 b3 01 00 00 00 	movabs $0x100000001b3,%r9
    d15b:	01 00 00 
    d15e:	4c 8b 45 c8          	mov    -0x38(%rbp),%r8
    d162:	48 be 00 00 00 00 00 	movabs $0x1000000000000000,%rsi
    d169:	00 00 10 
    d16c:	48 8b 7d d0          	mov    -0x30(%rbp),%rdi
    d170:	48 8b 4d c0          	mov    -0x40(%rbp),%rcx
    d174:	e9 80 fe ff ff       	jmp    cff9 <$sSS7ECScoreE12_hs_fnv1a_64s6UInt64Vvg+0x119>
    d179:	48 89 d8             	mov    %rbx,%rax
    d17c:	48 83 c4 48          	add    $0x48,%rsp
    d180:	5b                   	pop    %rbx
    d181:	41 5c                	pop    %r12
    d183:	41 5d                	pop    %r13
    d185:	41 5e                	pop    %r14
    d187:	41 5f                	pop    %r15
    d189:	5d                   	pop    %rbp
    d18a:	c3                   	ret
    d18b:	0f 0b                	ud2
    d18d:	0f 0b                	ud2
    d18f:	90                   	nop

000000000000d190 <$s7ECScore9ComponentPAAE15createPFStorageAA18AnyPlatformStorage_pyFZ>:
    d190:	55                   	push   %rbp
    d191:	48 89 e5             	mov    %rsp,%rbp
    d194:	41 57                	push   %r15
    d196:	41 56                	push   %r14
    d198:	41 55                	push   %r13
    d19a:	41 54                	push   %r12
    d19c:	53                   	push   %rbx
    d19d:	50                   	push   %rax
    d19e:	49 89 f6             	mov    %rsi,%r14
    d1a1:	49 89 ff             	mov    %rdi,%r15
    d1a4:	48 89 c3             	mov    %rax,%rbx
    d1a7:	31 ff                	xor    %edi,%edi
    d1a9:	4c 89 fe             	mov    %r15,%rsi
    d1ac:	4c 89 f2             	mov    %r14,%rdx
    d1af:	e8 6c 5c 00 00       	call   12e20 <$s7ECScore15PFStorageHandleCMa>
    d1b4:	49 89 c5             	mov    %rax,%r13
    d1b7:	e8 44 4c 00 00       	call   11e00 <$s7ECScore15PFStorageHandleCACyxGycfC>
    d1bc:	48 89 c7             	mov    %rax,%rdi
    d1bf:	e8 9c 4c 00 00       	call   11e60 <$s7ECScore12PFStorageBoxVyACyxGAA0B6HandleCyxGcfC>
    d1c4:	49 89 c4             	mov    %rax,%r12
    d1c7:	31 ff                	xor    %edi,%edi
    d1c9:	4c 89 fe             	mov    %r15,%rsi
    d1cc:	4c 89 f2             	mov    %r14,%rdx
    d1cf:	e8 3c 5c 00 00       	call   12e10 <$s7ECScore12PFStorageBoxVMa>
    d1d4:	48 89 43 18          	mov    %rax,0x18(%rbx)
    d1d8:	48 8d 05 a1 25 03 00 	lea    0x325a1(%rip),%rax        # 3f780 <$s7ECScore12PFStorageBoxVyxGAA18AnyPlatformStorageAAWP>
    d1df:	48 89 43 20          	mov    %rax,0x20(%rbx)
    d1e3:	4c 89 23             	mov    %r12,(%rbx)
    d1e6:	48 83 c4 08          	add    $0x8,%rsp
    d1ea:	5b                   	pop    %rbx
    d1eb:	41 5c                	pop    %r12
    d1ed:	41 5d                	pop    %r13
    d1ef:	41 5e                	pop    %r14
    d1f1:	41 5f                	pop    %r15
    d1f3:	5d                   	pop    %rbp
    d1f4:	c3                   	ret
    d1f5:	66 66 2e 0f 1f 84 00 	data16 cs nopw 0x0(%rax,%rax,1)
    d1fc:	00 00 00 00 

000000000000d200 <$s7ECScore14ComponentProxyV7pointerACyxGSpyxG_tcfC>:
    d200:	55                   	push   %rbp
    d201:	48 89 e5             	mov    %rsp,%rbp
    d204:	48 89 f8             	mov    %rdi,%rax
    d207:	5d                   	pop    %rbp
    d208:	c3                   	ret
    d209:	0f 1f 80 00 00 00 00 	nopl   0x0(%rax)

000000000000d210 <$s7ECScore14ComponentProxyV13dynamicMemberqd__s15WritableKeyPathCy0C7MembersQzqd__G_tcAA04FastB8ProtocolRzluir>:
    d210:	55                   	push   %rbp
    d211:	48 89 e5             	mov    %rsp,%rbp
    d214:	41 57                	push   %r15
    d216:	41 56                	push   %r14
    d218:	41 55                	push   %r13
    d21a:	41 54                	push   %r12
    d21c:	53                   	push   %rbx
    d21d:	48 83 ec 18          	sub    $0x18,%rsp
    d221:	4c 89 45 d0          	mov    %r8,-0x30(%rbp)
    d225:	49 89 cd             	mov    %rcx,%r13
    d228:	48 89 55 c8          	mov    %rdx,-0x38(%rbp)
    d22c:	48 89 f3             	mov    %rsi,%rbx
    d22f:	49 89 ff             	mov    %rdi,%r15
    d232:	bf 40 00 00 00       	mov    $0x40,%edi
    d237:	e8 d4 d8 ff ff       	call   ab10 <malloc@plt>
    d23c:	49 89 c6             	mov    %rax,%r14
    d23f:	49 89 07             	mov    %rax,(%r15)
    d242:	48 8b 03             	mov    (%rbx),%rax
    d245:	48 8b 0d dc 3c 03 00 	mov    0x33cdc(%rip),%rcx        # 40f28 <$ss15WritableKeyPathCMo>
    d24c:	48 8b 09             	mov    (%rcx),%rcx
    d24f:	4c 8b 3c 08          	mov    (%rax,%rcx,1),%r15
    d253:	4d 89 7e 20          	mov    %r15,0x20(%r14)
    d257:	49 8b 47 f8          	mov    -0x8(%r15),%rax
    d25b:	49 89 46 28          	mov    %rax,0x28(%r14)
    d25f:	48 8b 78 40          	mov    0x40(%rax),%rdi
    d263:	e8 a8 d8 ff ff       	call   ab10 <malloc@plt>
    d268:	49 89 c4             	mov    %rax,%r12
    d26b:	49 89 46 30          	mov    %rax,0x30(%r14)
    d26f:	48 8d 0d 2a 56 03 00 	lea    0x3562a(%rip),%rcx        # 428a0 <$s7ECScore21FastComponentProtocolTL>
    d276:	4c 8d 05 33 56 03 00 	lea    0x35633(%rip),%r8        # 428b0 <$s7ECScore21FastComponentProtocolP12ProxyMembersAC_AA0bE7PointerTn>
    d27d:	48 8b 7d d0          	mov    -0x30(%rbp),%rdi
    d281:	4c 89 ee             	mov    %r13,%rsi
    d284:	4c 89 fa             	mov    %r15,%rdx
    d287:	e8 94 d8 ff ff       	call   ab20 <swift_getAssociatedConformanceWitness@plt>
    d28c:	48 89 c2             	mov    %rax,%rdx
    d28f:	4c 89 e0             	mov    %r12,%rax
    d292:	48 8b 7d c8          	mov    -0x38(%rbp),%rdi
    d296:	4d 89 fd             	mov    %r15,%r13
    d299:	4c 89 fe             	mov    %r15,%rsi
    d29c:	ff 52 10             	call   *0x10(%rdx)
    d29f:	4c 89 f7             	mov    %r14,%rdi
    d2a2:	4c 89 e6             	mov    %r12,%rsi
    d2a5:	48 89 da             	mov    %rbx,%rdx
    d2a8:	e8 83 d8 ff ff       	call   ab30 <swift_readAtKeyPath@plt>
    d2ad:	49 89 46 38          	mov    %rax,0x38(%r14)
    d2b1:	48 8d 05 48 fb ff ff 	lea    -0x4b8(%rip),%rax        # ce00 <$s7ECScore14ComponentProxyV13dynamicMemberqd__s15WritableKeyPathCy0C7MembersQzqd__G_tcAA04FastB8ProtocolRzluir.resume.0>
    d2b8:	48 83 c4 18          	add    $0x18,%rsp
    d2bc:	5b                   	pop    %rbx
    d2bd:	41 5c                	pop    %r12
    d2bf:	41 5d                	pop    %r13
    d2c1:	41 5e                	pop    %r14
    d2c3:	41 5f                	pop    %r15
    d2c5:	5d                   	pop    %rbp
    d2c6:	c3                   	ret
    d2c7:	66 0f 1f 84 00 00 00 	nopw   0x0(%rax,%rax,1)
    d2ce:	00 00 

000000000000d2d0 <$s7ECScore14ComponentProxyV13dynamicMemberqd__s15WritableKeyPathCy0C7MembersQzqd__G_tcAA04FastB8ProtocolRzluiM>:
    d2d0:	55                   	push   %rbp
    d2d1:	48 89 e5             	mov    %rsp,%rbp
    d2d4:	41 57                	push   %r15
    d2d6:	41 56                	push   %r14
    d2d8:	41 55                	push   %r13
    d2da:	41 54                	push   %r12
    d2dc:	53                   	push   %rbx
    d2dd:	48 83 ec 18          	sub    $0x18,%rsp
    d2e1:	4c 89 45 d0          	mov    %r8,-0x30(%rbp)
    d2e5:	49 89 cd             	mov    %rcx,%r13
    d2e8:	48 89 55 c8          	mov    %rdx,-0x38(%rbp)
    d2ec:	48 89 f3             	mov    %rsi,%rbx
    d2ef:	49 89 ff             	mov    %rdi,%r15
    d2f2:	bf 40 00 00 00       	mov    $0x40,%edi
    d2f7:	e8 14 d8 ff ff       	call   ab10 <malloc@plt>
    d2fc:	49 89 c6             	mov    %rax,%r14
    d2ff:	49 89 07             	mov    %rax,(%r15)
    d302:	48 8b 03             	mov    (%rbx),%rax
    d305:	48 8b 0d 1c 3c 03 00 	mov    0x33c1c(%rip),%rcx        # 40f28 <$ss15WritableKeyPathCMo>
    d30c:	48 8b 09             	mov    (%rcx),%rcx
    d30f:	4c 8b 3c 08          	mov    (%rax,%rcx,1),%r15
    d313:	4d 89 7e 20          	mov    %r15,0x20(%r14)
    d317:	49 8b 47 f8          	mov    -0x8(%r15),%rax
    d31b:	49 89 46 28          	mov    %rax,0x28(%r14)
    d31f:	48 8b 78 40          	mov    0x40(%rax),%rdi
    d323:	e8 e8 d7 ff ff       	call   ab10 <malloc@plt>
    d328:	49 89 c4             	mov    %rax,%r12
    d32b:	49 89 46 30          	mov    %rax,0x30(%r14)
    d32f:	48 8d 0d 6a 55 03 00 	lea    0x3556a(%rip),%rcx        # 428a0 <$s7ECScore21FastComponentProtocolTL>
    d336:	4c 8d 05 73 55 03 00 	lea    0x35573(%rip),%r8        # 428b0 <$s7ECScore21FastComponentProtocolP12ProxyMembersAC_AA0bE7PointerTn>
    d33d:	48 8b 7d d0          	mov    -0x30(%rbp),%rdi
    d341:	4c 89 ee             	mov    %r13,%rsi
    d344:	4c 89 fa             	mov    %r15,%rdx
    d347:	e8 d4 d7 ff ff       	call   ab20 <swift_getAssociatedConformanceWitness@plt>
    d34c:	48 89 c2             	mov    %rax,%rdx
    d34f:	4c 89 e0             	mov    %r12,%rax
    d352:	48 8b 7d c8          	mov    -0x38(%rbp),%rdi
    d356:	4d 89 fd             	mov    %r15,%r13
    d359:	4c 89 fe             	mov    %r15,%rsi
    d35c:	ff 52 10             	call   *0x10(%rdx)
    d35f:	4c 89 f7             	mov    %r14,%rdi
    d362:	4c 89 e6             	mov    %r12,%rsi
    d365:	48 89 da             	mov    %rbx,%rdx
    d368:	e8 d3 d7 ff ff       	call   ab40 <swift_modifyAtWritableKeyPath@plt>
    d36d:	49 89 46 38          	mov    %rax,0x38(%r14)
    d371:	48 8d 05 b8 f5 ff ff 	lea    -0xa48(%rip),%rax        # c930 <$s7ECScore14ComponentProxyV13dynamicMemberqd__s15WritableKeyPathCy0C7MembersQzqd__G_tcAA04FastB8ProtocolRzluiM.resume.0>
    d378:	48 83 c4 18          	add    $0x18,%rsp
    d37c:	5b                   	pop    %rbx
    d37d:	41 5c                	pop    %r12
    d37f:	41 5d                	pop    %r13
    d381:	41 5e                	pop    %r14
    d383:	41 5f                	pop    %r15
    d385:	5d                   	pop    %rbp
    d386:	c3                   	ret
    d387:	66 0f 1f 84 00 00 00 	nopw   0x0(%rax,%rax,1)
    d38e:	00 00 

000000000000d390 <$s7ECScore14ComponentProxyV13dynamicMemberqd__s15WritableKeyPathCy0C7MembersQzqd__G_tcAA04FastB8ProtocolRzluig>:
    d390:	55                   	push   %rbp
    d391:	48 89 e5             	mov    %rsp,%rbp
    d394:	41 57                	push   %r15
    d396:	41 56                	push   %r14
    d398:	41 55                	push   %r13
    d39a:	41 54                	push   %r12
    d39c:	53                   	push   %rbx
    d39d:	48 83 ec 38          	sub    $0x38,%rsp
    d3a1:	48 89 45 c8          	mov    %rax,-0x38(%rbp)
    d3a5:	48 89 75 d0          	mov    %rsi,-0x30(%rbp)
    d3a9:	49 89 ff             	mov    %rdi,%r15
    d3ac:	4c 8b 27             	mov    (%rdi),%r12
    d3af:	48 8b 05 72 3b 03 00 	mov    0x33b72(%rip),%rax        # 40f28 <$ss15WritableKeyPathCMo>
    d3b6:	48 8b 00             	mov    (%rax),%rax
    d3b9:	4d 8b 2c 04          	mov    (%r12,%rax,1),%r13
    d3bd:	49 8b 5d f8          	mov    -0x8(%r13),%rbx
    d3c1:	48 8b 43 40          	mov    0x40(%rbx),%rax
    d3c5:	48 83 c0 0f          	add    $0xf,%rax
    d3c9:	48 83 e0 f0          	and    $0xfffffffffffffff0,%rax
    d3cd:	49 89 e6             	mov    %rsp,%r14
    d3d0:	49 29 c6             	sub    %rax,%r14
    d3d3:	4c 89 f4             	mov    %r14,%rsp
    d3d6:	48 8d 05 c3 54 03 00 	lea    0x354c3(%rip),%rax        # 428a0 <$s7ECScore21FastComponentProtocolTL>
    d3dd:	4c 8d 05 cc 54 03 00 	lea    0x354cc(%rip),%r8        # 428b0 <$s7ECScore21FastComponentProtocolP12ProxyMembersAC_AA0bE7PointerTn>
    d3e4:	48 89 cf             	mov    %rcx,%rdi
    d3e7:	48 89 d6             	mov    %rdx,%rsi
    d3ea:	4c 89 ea             	mov    %r13,%rdx
    d3ed:	48 89 c1             	mov    %rax,%rcx
    d3f0:	e8 2b d7 ff ff       	call   ab20 <swift_getAssociatedConformanceWitness@plt>
    d3f5:	48 89 c2             	mov    %rax,%rdx
    d3f8:	4c 89 f0             	mov    %r14,%rax
    d3fb:	48 8b 7d d0          	mov    -0x30(%rbp),%rdi
    d3ff:	4c 89 ee             	mov    %r13,%rsi
    d402:	ff 52 10             	call   *0x10(%rdx)
    d405:	48 8d 7d a8          	lea    -0x58(%rbp),%rdi
    d409:	4c 89 f6             	mov    %r14,%rsi
    d40c:	4c 89 fa             	mov    %r15,%rdx
    d40f:	e8 1c d7 ff ff       	call   ab30 <swift_readAtKeyPath@plt>
    d414:	49 89 c7             	mov    %rax,%r15
    d417:	48 8b 05 0a 3b 03 00 	mov    0x33b0a(%rip),%rax        # 40f28 <$ss15WritableKeyPathCMo>
    d41e:	48 8b 00             	mov    (%rax),%rax
    d421:	49 8b 44 04 08       	mov    0x8(%r12,%rax,1),%rax
    d426:	48 8b 48 f8          	mov    -0x8(%rax),%rcx
    d42a:	48 8b 7d c8          	mov    -0x38(%rbp),%rdi
    d42e:	48 89 d6             	mov    %rdx,%rsi
    d431:	48 89 c2             	mov    %rax,%rdx
    d434:	ff 51 10             	call   *0x10(%rcx)
    d437:	48 8d 7d a8          	lea    -0x58(%rbp),%rdi
    d43b:	31 f6                	xor    %esi,%esi
    d43d:	41 ff d7             	call   *%r15
    d440:	4c 89 f7             	mov    %r14,%rdi
    d443:	4c 89 ee             	mov    %r13,%rsi
    d446:	ff 53 08             	call   *0x8(%rbx)
    d449:	48 8d 65 d8          	lea    -0x28(%rbp),%rsp
    d44d:	5b                   	pop    %rbx
    d44e:	41 5c                	pop    %r12
    d450:	41 5d                	pop    %r13
    d452:	41 5e                	pop    %r14
    d454:	41 5f                	pop    %r15
    d456:	5d                   	pop    %rbp
    d457:	c3                   	ret
    d458:	0f 1f 84 00 00 00 00 	nopl   0x0(%rax,%rax,1)
    d45f:	00 

000000000000d460 <$s7ECScore14ComponentProxyV13dynamicMemberqd__s15WritableKeyPathCy0C7MembersQzqd__G_tcAA04FastB8ProtocolRzluis>:
    d460:	55                   	push   %rbp
    d461:	48 89 e5             	mov    %rsp,%rbp
    d464:	41 57                	push   %r15
    d466:	41 56                	push   %r14
    d468:	41 55                	push   %r13
    d46a:	41 54                	push   %r12
    d46c:	53                   	push   %rbx
    d46d:	48 83 ec 48          	sub    $0x48,%rsp
    d471:	4d 89 c1             	mov    %r8,%r9
    d474:	48 89 d3             	mov    %rdx,%rbx
    d477:	49 89 f6             	mov    %rsi,%r14
    d47a:	48 89 7d c0          	mov    %rdi,-0x40(%rbp)
    d47e:	4c 8b 26             	mov    (%rsi),%r12
    d481:	48 89 75 c8          	mov    %rsi,-0x38(%rbp)
    d485:	48 8b 05 9c 3a 03 00 	mov    0x33a9c(%rip),%rax        # 40f28 <$ss15WritableKeyPathCMo>
    d48c:	48 8b 00             	mov    (%rax),%rax
    d48f:	4d 8b 2c 04          	mov    (%r12,%rax,1),%r13
    d493:	49 8b 45 f8          	mov    -0x8(%r13),%rax
    d497:	48 89 45 b8          	mov    %rax,-0x48(%rbp)
    d49b:	48 8b 40 40          	mov    0x40(%rax),%rax
    d49f:	48 83 c0 0f          	add    $0xf,%rax
    d4a3:	48 83 e0 f0          	and    $0xfffffffffffffff0,%rax
    d4a7:	49 89 e7             	mov    %rsp,%r15
    d4aa:	49 29 c7             	sub    %rax,%r15
    d4ad:	4c 89 fc             	mov    %r15,%rsp
    d4b0:	48 8d 05 e9 53 03 00 	lea    0x353e9(%rip),%rax        # 428a0 <$s7ECScore21FastComponentProtocolTL>
    d4b7:	4c 8d 05 f2 53 03 00 	lea    0x353f2(%rip),%r8        # 428b0 <$s7ECScore21FastComponentProtocolP12ProxyMembersAC_AA0bE7PointerTn>
    d4be:	4c 89 cf             	mov    %r9,%rdi
    d4c1:	48 89 ce             	mov    %rcx,%rsi
    d4c4:	4c 89 ea             	mov    %r13,%rdx
    d4c7:	48 89 c1             	mov    %rax,%rcx
    d4ca:	e8 51 d6 ff ff       	call   ab20 <swift_getAssociatedConformanceWitness@plt>
    d4cf:	48 89 c2             	mov    %rax,%rdx
    d4d2:	4c 89 f8             	mov    %r15,%rax
    d4d5:	48 89 df             	mov    %rbx,%rdi
    d4d8:	4c 89 ee             	mov    %r13,%rsi
    d4db:	ff 52 10             	call   *0x10(%rdx)
    d4de:	48 8d 7d 98          	lea    -0x68(%rbp),%rdi
    d4e2:	4c 89 fe             	mov    %r15,%rsi
    d4e5:	4c 89 f2             	mov    %r14,%rdx
    d4e8:	e8 53 d6 ff ff       	call   ab40 <swift_modifyAtWritableKeyPath@plt>
    d4ed:	48 89 45 d0          	mov    %rax,-0x30(%rbp)
    d4f1:	48 89 d7             	mov    %rdx,%rdi
    d4f4:	48 8b 05 2d 3a 03 00 	mov    0x33a2d(%rip),%rax        # 40f28 <$ss15WritableKeyPathCMo>
    d4fb:	48 8b 00             	mov    (%rax),%rax
    d4fe:	4d 8b 64 04 08       	mov    0x8(%r12,%rax,1),%r12
    d503:	4d 8b 74 24 f8       	mov    -0x8(%r12),%r14
    d508:	48 8b 5d c0          	mov    -0x40(%rbp),%rbx
    d50c:	48 89 de             	mov    %rbx,%rsi
    d50f:	4c 89 e2             	mov    %r12,%rdx
    d512:	41 ff 56 18          	call   *0x18(%r14)
    d516:	48 8d 7d 98          	lea    -0x68(%rbp),%rdi
    d51a:	31 f6                	xor    %esi,%esi
    d51c:	ff 55 d0             	call   *-0x30(%rbp)
    d51f:	4c 89 ff             	mov    %r15,%rdi
    d522:	4c 89 ee             	mov    %r13,%rsi
    d525:	48 8b 45 b8          	mov    -0x48(%rbp),%rax
    d529:	ff 50 08             	call   *0x8(%rax)
    d52c:	48 8b 7d c8          	mov    -0x38(%rbp),%rdi
    d530:	e8 0b d4 ff ff       	call   a940 <swift_release@plt>
    d535:	48 89 df             	mov    %rbx,%rdi
    d538:	4c 89 e6             	mov    %r12,%rsi
    d53b:	41 ff 56 08          	call   *0x8(%r14)
    d53f:	48 8d 65 d8          	lea    -0x28(%rbp),%rsp
    d543:	5b                   	pop    %rbx
    d544:	41 5c                	pop    %r12
    d546:	41 5d                	pop    %r13
    d548:	41 5e                	pop    %r14
    d54a:	41 5f                	pop    %r15
    d54c:	5d                   	pop    %rbp
    d54d:	c3                   	ret
    d54e:	66 90                	xchg   %ax,%ax

000000000000d550 <$s7ECScore14ComponentProxyV13dynamicMemberqd__s15WritableKeyPathCyxqd__G_tcluir>:
    d550:	55                   	push   %rbp
    d551:	48 89 e5             	mov    %rsp,%rbp
    d554:	41 57                	push   %r15
    d556:	41 56                	push   %r14
    d558:	41 55                	push   %r13
    d55a:	41 54                	push   %r12
    d55c:	53                   	push   %rbx
    d55d:	50                   	push   %rax
    d55e:	48 89 55 d0          	mov    %rdx,-0x30(%rbp)
    d562:	48 89 f3             	mov    %rsi,%rbx
    d565:	49 89 fc             	mov    %rdi,%r12
    d568:	bf 40 00 00 00       	mov    $0x40,%edi
    d56d:	e8 9e d5 ff ff       	call   ab10 <malloc@plt>
    d572:	49 89 c6             	mov    %rax,%r14
    d575:	49 89 04 24          	mov    %rax,(%r12)
    d579:	48 8b 03             	mov    (%rbx),%rax
    d57c:	48 8b 0d a5 39 03 00 	mov    0x339a5(%rip),%rcx        # 40f28 <$ss15WritableKeyPathCMo>
    d583:	48 8b 09             	mov    (%rcx),%rcx
    d586:	4c 8b 24 08          	mov    (%rax,%rcx,1),%r12
    d58a:	4d 89 66 20          	mov    %r12,0x20(%r14)
    d58e:	4d 8b 7c 24 f8       	mov    -0x8(%r12),%r15
    d593:	4d 89 7e 28          	mov    %r15,0x28(%r14)
    d597:	49 8b 7f 40          	mov    0x40(%r15),%rdi
    d59b:	e8 70 d5 ff ff       	call   ab10 <malloc@plt>
    d5a0:	49 89 c5             	mov    %rax,%r13
    d5a3:	49 89 46 30          	mov    %rax,0x30(%r14)
    d5a7:	48 89 c7             	mov    %rax,%rdi
    d5aa:	48 8b 75 d0          	mov    -0x30(%rbp),%rsi
    d5ae:	4c 89 e2             	mov    %r12,%rdx
    d5b1:	41 ff 57 10          	call   *0x10(%r15)
    d5b5:	4c 89 f7             	mov    %r14,%rdi
    d5b8:	4c 89 ee             	mov    %r13,%rsi
    d5bb:	48 89 da             	mov    %rbx,%rdx
    d5be:	e8 6d d5 ff ff       	call   ab30 <swift_readAtKeyPath@plt>
    d5c3:	49 89 46 38          	mov    %rax,0x38(%r14)
    d5c7:	48 8d 05 42 f8 ff ff 	lea    -0x7be(%rip),%rax        # ce10 <$s7ECScore14ComponentProxyV13dynamicMemberqd__s15WritableKeyPathCyxqd__G_tcluir.resume.0>
    d5ce:	48 83 c4 08          	add    $0x8,%rsp
    d5d2:	5b                   	pop    %rbx
    d5d3:	41 5c                	pop    %r12
    d5d5:	41 5d                	pop    %r13
    d5d7:	41 5e                	pop    %r14
    d5d9:	41 5f                	pop    %r15
    d5db:	5d                   	pop    %rbp
    d5dc:	c3                   	ret
    d5dd:	0f 1f 00             	nopl   (%rax)

000000000000d5e0 <$s7ECScore14ComponentProxyV13dynamicMemberqd__s15WritableKeyPathCyxqd__G_tcluiM>:
    d5e0:	55                   	push   %rbp
    d5e1:	48 89 e5             	mov    %rsp,%rbp
    d5e4:	41 57                	push   %r15
    d5e6:	41 56                	push   %r14
    d5e8:	41 54                	push   %r12
    d5ea:	53                   	push   %rbx
    d5eb:	48 89 d3             	mov    %rdx,%rbx
    d5ee:	49 89 f6             	mov    %rsi,%r14
    d5f1:	49 89 ff             	mov    %rdi,%r15
    d5f4:	bf 28 00 00 00       	mov    $0x28,%edi
    d5f9:	e8 12 d5 ff ff       	call   ab10 <malloc@plt>
    d5fe:	49 89 c4             	mov    %rax,%r12
    d601:	49 89 07             	mov    %rax,(%r15)
    d604:	48 89 c7             	mov    %rax,%rdi
    d607:	48 89 de             	mov    %rbx,%rsi
    d60a:	4c 89 f2             	mov    %r14,%rdx
    d60d:	e8 2e d5 ff ff       	call   ab40 <swift_modifyAtWritableKeyPath@plt>
    d612:	49 89 44 24 20       	mov    %rax,0x20(%r12)
    d617:	48 8d 05 72 f3 ff ff 	lea    -0xc8e(%rip),%rax        # c990 <$s7ECScore14ComponentProxyV13dynamicMemberqd__s15WritableKeyPathCyxqd__G_tcluiM.resume.0>
    d61e:	5b                   	pop    %rbx
    d61f:	41 5c                	pop    %r12
    d621:	41 5e                	pop    %r14
    d623:	41 5f                	pop    %r15
    d625:	5d                   	pop    %rbp
    d626:	c3                   	ret
    d627:	66 0f 1f 84 00 00 00 	nopw   0x0(%rax,%rax,1)
    d62e:	00 00 

000000000000d630 <$s7ECScore14ComponentProxyV13dynamicMemberqd__s15WritableKeyPathCyxqd__G_tcluig>:
    d630:	55                   	push   %rbp
    d631:	48 89 e5             	mov    %rsp,%rbp
    d634:	41 57                	push   %r15
    d636:	41 56                	push   %r14
    d638:	41 55                	push   %r13
    d63a:	41 54                	push   %r12
    d63c:	53                   	push   %rbx
    d63d:	48 83 ec 28          	sub    $0x28,%rsp
    d641:	49 89 fc             	mov    %rdi,%r12
    d644:	48 89 45 d0          	mov    %rax,-0x30(%rbp)
    d648:	4c 8b 2f             	mov    (%rdi),%r13
    d64b:	48 8b 05 d6 38 03 00 	mov    0x338d6(%rip),%rax        # 40f28 <$ss15WritableKeyPathCMo>
    d652:	48 8b 00             	mov    (%rax),%rax
    d655:	49 8b 5c 05 00       	mov    0x0(%r13,%rax,1),%rbx
    d65a:	4c 8b 73 f8          	mov    -0x8(%rbx),%r14
    d65e:	49 8b 46 40          	mov    0x40(%r14),%rax
    d662:	48 83 c0 0f          	add    $0xf,%rax
    d666:	48 83 e0 f0          	and    $0xfffffffffffffff0,%rax
    d66a:	49 89 e7             	mov    %rsp,%r15
    d66d:	49 29 c7             	sub    %rax,%r15
    d670:	4c 89 fc             	mov    %r15,%rsp
    d673:	4c 89 ff             	mov    %r15,%rdi
    d676:	48 89 da             	mov    %rbx,%rdx
    d679:	41 ff 56 10          	call   *0x10(%r14)
    d67d:	48 8d 7d b0          	lea    -0x50(%rbp),%rdi
    d681:	4c 89 fe             	mov    %r15,%rsi
    d684:	4c 89 e2             	mov    %r12,%rdx
    d687:	e8 a4 d4 ff ff       	call   ab30 <swift_readAtKeyPath@plt>
    d68c:	49 89 c4             	mov    %rax,%r12
    d68f:	48 8b 05 92 38 03 00 	mov    0x33892(%rip),%rax        # 40f28 <$ss15WritableKeyPathCMo>
    d696:	48 8b 00             	mov    (%rax),%rax
    d699:	49 8b 44 05 08       	mov    0x8(%r13,%rax,1),%rax
    d69e:	48 8b 48 f8          	mov    -0x8(%rax),%rcx
    d6a2:	48 8b 7d d0          	mov    -0x30(%rbp),%rdi
    d6a6:	48 89 d6             	mov    %rdx,%rsi
    d6a9:	48 89 c2             	mov    %rax,%rdx
    d6ac:	ff 51 10             	call   *0x10(%rcx)
    d6af:	48 8d 7d b0          	lea    -0x50(%rbp),%rdi
    d6b3:	31 f6                	xor    %esi,%esi
    d6b5:	41 ff d4             	call   *%r12
    d6b8:	4c 89 ff             	mov    %r15,%rdi
    d6bb:	48 89 de             	mov    %rbx,%rsi
    d6be:	41 ff 56 08          	call   *0x8(%r14)
    d6c2:	48 8d 65 d8          	lea    -0x28(%rbp),%rsp
    d6c6:	5b                   	pop    %rbx
    d6c7:	41 5c                	pop    %r12
    d6c9:	41 5d                	pop    %r13
    d6cb:	41 5e                	pop    %r14
    d6cd:	41 5f                	pop    %r15
    d6cf:	5d                   	pop    %rbp
    d6d0:	c3                   	ret
    d6d1:	66 66 66 66 66 66 2e 	data16 data16 data16 data16 data16 cs nopw 0x0(%rax,%rax,1)
    d6d8:	0f 1f 84 00 00 00 00 
    d6df:	00 

000000000000d6e0 <$s7ECScore14ComponentProxyV13dynamicMemberqd__s15WritableKeyPathCyxqd__G_tcluis>:
    d6e0:	55                   	push   %rbp
    d6e1:	48 89 e5             	mov    %rsp,%rbp
    d6e4:	41 57                	push   %r15
    d6e6:	41 56                	push   %r14
    d6e8:	41 55                	push   %r13
    d6ea:	41 54                	push   %r12
    d6ec:	53                   	push   %rbx
    d6ed:	48 83 ec 28          	sub    $0x28,%rsp
    d6f1:	49 89 f6             	mov    %rsi,%r14
    d6f4:	48 89 fb             	mov    %rdi,%rbx
    d6f7:	4c 8b 2e             	mov    (%rsi),%r13
    d6fa:	48 8d 7d b8          	lea    -0x48(%rbp),%rdi
    d6fe:	48 89 d6             	mov    %rdx,%rsi
    d701:	4c 89 f2             	mov    %r14,%rdx
    d704:	e8 37 d4 ff ff       	call   ab40 <swift_modifyAtWritableKeyPath@plt>
    d709:	49 89 c4             	mov    %rax,%r12
    d70c:	48 89 d7             	mov    %rdx,%rdi
    d70f:	48 8b 05 12 38 03 00 	mov    0x33812(%rip),%rax        # 40f28 <$ss15WritableKeyPathCMo>
    d716:	48 8b 00             	mov    (%rax),%rax
    d719:	4d 8b 6c 05 08       	mov    0x8(%r13,%rax,1),%r13
    d71e:	4d 8b 7d f8          	mov    -0x8(%r13),%r15
    d722:	48 89 de             	mov    %rbx,%rsi
    d725:	4c 89 ea             	mov    %r13,%rdx
    d728:	41 ff 57 18          	call   *0x18(%r15)
    d72c:	48 8d 7d b8          	lea    -0x48(%rbp),%rdi
    d730:	31 f6                	xor    %esi,%esi
    d732:	41 ff d4             	call   *%r12
    d735:	4c 89 f7             	mov    %r14,%rdi
    d738:	e8 03 d2 ff ff       	call   a940 <swift_release@plt>
    d73d:	48 89 df             	mov    %rbx,%rdi
    d740:	4c 89 ee             	mov    %r13,%rsi
    d743:	41 ff 57 08          	call   *0x8(%r15)
    d747:	48 83 c4 28          	add    $0x28,%rsp
    d74b:	5b                   	pop    %rbx
    d74c:	41 5c                	pop    %r12
    d74e:	41 5d                	pop    %r13
    d750:	41 5e                	pop    %r14
    d752:	41 5f                	pop    %r15
    d754:	5d                   	pop    %rbp
    d755:	c3                   	ret
    d756:	66 2e 0f 1f 84 00 00 	cs nopw 0x0(%rax,%rax,1)
    d75d:	00 00 00 

000000000000d760 <$s7ECScore8EntitiesC8freeList33_CCE3B676561E281CEF1F76A9BC060B3DLLSaySiGvpfi>:
    d760:	55                   	push   %rbp
    d761:	48 89 e5             	mov    %rsp,%rbp
    d764:	48 8b 05 a5 37 03 00 	mov    0x337a5(%rip),%rax        # 40f10 <_swiftEmptyArrayStorage>
    d76b:	5d                   	pop    %rbp
    d76c:	c3                   	ret
    d76d:	0f 1f 00             	nopl   (%rax)

000000000000d770 <$s7ECScore8EntitiesC8versions33_CCE3B676561E281CEF1F76A9BC060B3DLLSaySiGvpfi>:
    d770:	55                   	push   %rbp
    d771:	48 89 e5             	mov    %rsp,%rbp
    d774:	48 8b 05 95 37 03 00 	mov    0x33795(%rip),%rax        # 40f10 <_swiftEmptyArrayStorage>
    d77b:	5d                   	pop    %rbp
    d77c:	c3                   	ret
    d77d:	0f 1f 00             	nopl   (%rax)

000000000000d780 <$s7ECScore8EntitiesC8isActive33_CCE3B676561E281CEF1F76A9BC060B3DLLSays6UInt64VGvpfi>:
    d780:	55                   	push   %rbp
    d781:	48 89 e5             	mov    %rsp,%rbp
    d784:	48 8b 05 85 37 03 00 	mov    0x33785(%rip),%rax        # 40f10 <_swiftEmptyArrayStorage>
    d78b:	5d                   	pop    %rbp
    d78c:	c3                   	ret
    d78d:	0f 1f 00             	nopl   (%rax)

000000000000d790 <$s7ECScore12BasePlatformC8storagesSayAA03AnyC7Storage_pSgGvpfi>:
    d790:	55                   	push   %rbp
    d791:	48 89 e5             	mov    %rsp,%rbp
    d794:	48 8b 05 75 37 03 00 	mov    0x33775(%rip),%rax        # 40f10 <_swiftEmptyArrayStorage>
    d79b:	5d                   	pop    %rbp
    d79c:	c3                   	ret
    d79d:	0f 1f 00             	nopl   (%rax)

000000000000d7a0 <$s7ECScore16RegistryPlatformC8entitiesAA8EntitiesCvpfi>:
    d7a0:	55                   	push   %rbp
    d7a1:	48 89 e5             	mov    %rsp,%rbp
    d7a4:	5d                   	pop    %rbp
    d7a5:	e9 06 f2 ff ff       	jmp    c9b0 <$s7ECScore19EntityPlatForm_Ver0C8entities33_960A0A4822ABE1EECDF74C02D1C6F37BLLAA8EntitiesCvpfiTm>
    d7aa:	66 0f 1f 44 00 00    	nopw   0x0(%rax,%rax,1)

000000000000d7b0 <$s7ECScore16RegistryPlatformC9typeToRId33_06E0DF4B3A4CC9D4F69BE5B5754A13D3LLSDys6UInt64VAA8EntityIdVGvpfi>:
    d7b0:	55                   	push   %rbp
    d7b1:	48 89 e5             	mov    %rsp,%rbp
    d7b4:	48 8b 3d 55 37 03 00 	mov    0x33755(%rip),%rdi        # 40f10 <_swiftEmptyArrayStorage>
    d7bb:	5d                   	pop    %rbp
    d7bc:	e9 ff f2 ff ff       	jmp    cac0 <$sSD17dictionaryLiteralSDyxq_Gx_q_td_tcfCs6UInt64V_7ECScore8EntityIdVTt0g5Tf4g_n>
    d7c1:	66 66 66 66 66 66 2e 	data16 data16 data16 data16 data16 cs nopw 0x0(%rax,%rax,1)
    d7c8:	0f 1f 84 00 00 00 00 
    d7cf:	00 

000000000000d7d0 <$s7ECScore16RegistryPlatformC9ridToType33_06E0DF4B3A4CC9D4F69BE5B5754A13D3LLSDyAA8EntityIdVAA9Component_pXpGvpfi>:
    d7d0:	55                   	push   %rbp
    d7d1:	48 89 e5             	mov    %rsp,%rbp
    d7d4:	48 8b 3d 35 37 03 00 	mov    0x33735(%rip),%rdi        # 40f10 <_swiftEmptyArrayStorage>
    d7db:	5d                   	pop    %rbp
    d7dc:	e9 9f f3 ff ff       	jmp    cb80 <$sSD17dictionaryLiteralSDyxq_Gx_q_td_tcfC7ECScore8EntityIdV_AC9Component_pXpTt0g5Tf4g_n>
    d7e1:	66 66 66 66 66 66 2e 	data16 data16 data16 data16 data16 cs nopw 0x0(%rax,%rax,1)
    d7e8:	0f 1f 84 00 00 00 00 
    d7ef:	00 

000000000000d7f0 <$s7ECScore15PFStorageHandleC9pfstorage33_0DD6A5614DE61F59A148C818902B60CFLLAA0B0VyxGvpfi>:
    d7f0:	55                   	push   %rbp
    d7f1:	48 89 e5             	mov    %rsp,%rbp
    d7f4:	53                   	push   %rbx
    d7f5:	48 83 ec 28          	sub    $0x28,%rsp
    d7f9:	48 89 c3             	mov    %rax,%rbx
    d7fc:	48 8d 45 d0          	lea    -0x30(%rbp),%rax
    d800:	e8 7b 47 00 00       	call   11f80 <$s7ECScore9PFStorageVACyxGycfC>
    d805:	48 8b 45 f0          	mov    -0x10(%rbp),%rax
    d809:	48 89 43 20          	mov    %rax,0x20(%rbx)
    d80d:	0f 10 45 d0          	movups -0x30(%rbp),%xmm0
    d811:	0f 10 4d e0          	movups -0x20(%rbp),%xmm1
    d815:	0f 11 4b 10          	movups %xmm1,0x10(%rbx)
    d819:	0f 11 03             	movups %xmm0,(%rbx)
    d81c:	48 83 c4 28          	add    $0x28,%rsp
    d820:	5b                   	pop    %rbx
    d821:	5d                   	pop    %rbp
    d822:	c3                   	ret
    d823:	66 66 66 66 2e 0f 1f 	data16 data16 data16 cs nopw 0x0(%rax,%rax,1)
    d82a:	84 00 00 00 00 00 

000000000000d830 <$s7ECScore14Manifest_FactsV6MF_EnvV8registryAA17Platform_Registry_pSgvpfi>:
    d830:	55                   	push   %rbp
    d831:	48 89 e5             	mov    %rsp,%rbp
    d834:	31 c0                	xor    %eax,%eax
    d836:	31 d2                	xor    %edx,%edx
    d838:	5d                   	pop    %rbp
    d839:	c3                   	ret
    d83a:	66 0f 1f 44 00 00    	nopw   0x0(%rax,%rax,1)

000000000000d840 <$s7ECScore14Platform_FactsV5flagsAC9CaseFlagsVvpfi>:
    d840:	55                   	push   %rbp
    d841:	48 89 e5             	mov    %rsp,%rbp
    d844:	31 c0                	xor    %eax,%eax
    d846:	5d                   	pop    %rbp
    d847:	c3                   	ret
    d848:	0f 1f 84 00 00 00 00 	nopl   0x0(%rax,%rax,1)
    d84f:	00 

000000000000d850 <$s7ECScore9ValidatedV5value5factsACyxq_q0_Gx_q0_tc33_10366CE9F75AA16D1CFD45DEB032F683LlfcfA0_>:
    d850:	55                   	push   %rbp
    d851:	48 89 e5             	mov    %rsp,%rbp
    d854:	41 55                	push   %r13
    d856:	50                   	push   %rax
    d857:	4c 89 c6             	mov    %r8,%rsi
    d85a:	48 89 d7             	mov    %rdx,%rdi
    d85d:	49 89 d5             	mov    %rdx,%r13
    d860:	ff 56 40             	call   *0x40(%rsi)
    d863:	48 83 c4 08          	add    $0x8,%rsp
    d867:	41 5d                	pop    %r13
    d869:	5d                   	pop    %rbp
    d86a:	c3                   	ret
    d86b:	0f 1f 44 00 00       	nopl   0x0(%rax,%rax,1)

000000000000d870 <$s7ECScore14ComponentProxyVMa>:
    d870:	4c 8d 05 49 50 03 00 	lea    0x35049(%rip),%r8        # 428c0 <$s7ECScore14ComponentProxyVMn>
    d877:	e9 d4 df ff ff       	jmp    b850 <__swift_instantiateGenericMetadata>
    d87c:	0f 1f 40 00          	nopl   0x0(%rax)

000000000000d880 <$s7ECScore19EntityPlatForm_Ver0C8entities33_960A0A4822ABE1EECDF74C02D1C6F37BLLAA8EntitiesCvpfi>:
    d880:	55                   	push   %rbp
    d881:	48 89 e5             	mov    %rsp,%rbp
    d884:	5d                   	pop    %rbp
    d885:	e9 16 ff ff ff       	jmp    d7a0 <$s7ECScore16RegistryPlatformC8entitiesAA8EntitiesCvpfi>
    d88a:	66 0f 1f 44 00 00    	nopw   0x0(%rax,%rax,1)

000000000000d890 <$s7ECScore8EntityIdVSHAASH9hashValueSivgTW>:
    d890:	55                   	push   %rbp
    d891:	48 89 e5             	mov    %rsp,%rbp
    d894:	41 56                	push   %r14
    d896:	41 55                	push   %r13
    d898:	53                   	push   %rbx
    d899:	48 83 ec 48          	sub    $0x48,%rsp
    d89d:	49 8b 5d 00          	mov    0x0(%r13),%rbx
    d8a1:	4d 8b 75 08          	mov    0x8(%r13),%r14
    d8a5:	4c 8d 6d a0          	lea    -0x60(%rbp),%r13
    d8a9:	4c 89 e8             	mov    %r13,%rax
    d8ac:	31 ff                	xor    %edi,%edi
    d8ae:	e8 dd d0 ff ff       	call   a990 <$ss6HasherV5_seedABSi_tcfC@plt>
    d8b3:	48 89 df             	mov    %rbx,%rdi
    d8b6:	e8 e5 d0 ff ff       	call   a9a0 <$ss6HasherV8_combineyySuF@plt>
    d8bb:	4c 89 f7             	mov    %r14,%rdi
    d8be:	e8 dd d0 ff ff       	call   a9a0 <$ss6HasherV8_combineyySuF@plt>
    d8c3:	e8 e8 d0 ff ff       	call   a9b0 <$ss6HasherV9_finalizeSiyF@plt>
    d8c8:	48 83 c4 48          	add    $0x48,%rsp
    d8cc:	5b                   	pop    %rbx
    d8cd:	41 5d                	pop    %r13
    d8cf:	41 5e                	pop    %r14
    d8d1:	5d                   	pop    %rbp
    d8d2:	c3                   	ret
    d8d3:	66 66 66 66 2e 0f 1f 	data16 data16 data16 cs nopw 0x0(%rax,%rax,1)
    d8da:	84 00 00 00 00 00 

000000000000d8e0 <$s7ECScore8EntityIdVSHAASH4hash4intoys6HasherVz_tFTW>:
    d8e0:	55                   	push   %rbp
    d8e1:	48 89 e5             	mov    %rsp,%rbp
    d8e4:	41 56                	push   %r14
    d8e6:	41 55                	push   %r13
    d8e8:	53                   	push   %rbx
    d8e9:	50                   	push   %rax
    d8ea:	48 89 fb             	mov    %rdi,%rbx
    d8ed:	49 8b 7d 00          	mov    0x0(%r13),%rdi
    d8f1:	4d 8b 75 08          	mov    0x8(%r13),%r14
    d8f5:	49 89 dd             	mov    %rbx,%r13
    d8f8:	e8 a3 d0 ff ff       	call   a9a0 <$ss6HasherV8_combineyySuF@plt>
    d8fd:	4c 89 f7             	mov    %r14,%rdi
    d900:	e8 9b d0 ff ff       	call   a9a0 <$ss6HasherV8_combineyySuF@plt>
    d905:	48 83 c4 08          	add    $0x8,%rsp
    d909:	5b                   	pop    %rbx
    d90a:	41 5d                	pop    %r13
    d90c:	41 5e                	pop    %r14
    d90e:	5d                   	pop    %rbp
    d90f:	c3                   	ret

000000000000d910 <$s7ECScore8EntityIdVSHAASH13_rawHashValue4seedS2i_tFTW>:
    d910:	55                   	push   %rbp
    d911:	48 89 e5             	mov    %rsp,%rbp
    d914:	41 56                	push   %r14
    d916:	41 55                	push   %r13
    d918:	53                   	push   %rbx
    d919:	48 83 ec 48          	sub    $0x48,%rsp
    d91d:	49 8b 5d 00          	mov    0x0(%r13),%rbx
    d921:	4d 8b 75 08          	mov    0x8(%r13),%r14
    d925:	4c 8d 6d a0          	lea    -0x60(%rbp),%r13
    d929:	4c 89 e8             	mov    %r13,%rax
    d92c:	e8 5f d0 ff ff       	call   a990 <$ss6HasherV5_seedABSi_tcfC@plt>
    d931:	48 89 df             	mov    %rbx,%rdi
    d934:	e8 67 d0 ff ff       	call   a9a0 <$ss6HasherV8_combineyySuF@plt>
    d939:	4c 89 f7             	mov    %r14,%rdi
    d93c:	e8 5f d0 ff ff       	call   a9a0 <$ss6HasherV8_combineyySuF@plt>
    d941:	e8 6a d0 ff ff       	call   a9b0 <$ss6HasherV9_finalizeSiyF@plt>
    d946:	48 83 c4 48          	add    $0x48,%rsp
    d94a:	5b                   	pop    %rbx
    d94b:	41 5d                	pop    %r13
    d94d:	41 5e                	pop    %r14
    d94f:	5d                   	pop    %rbp
    d950:	c3                   	ret
    d951:	66 66 66 66 66 66 2e 	data16 data16 data16 data16 data16 cs nopw 0x0(%rax,%rax,1)
    d958:	0f 1f 84 00 00 00 00 
    d95f:	00 

000000000000d960 <$s7ECScore8EntityIdVSLAASL1loiySbx_xtFZTW>:
    d960:	55                   	push   %rbp
    d961:	48 89 e5             	mov    %rsp,%rbp
    d964:	48 8b 07             	mov    (%rdi),%rax
    d967:	48 3b 06             	cmp    (%rsi),%rax
    d96a:	0f 9c c0             	setl   %al
    d96d:	5d                   	pop    %rbp
    d96e:	c3                   	ret
    d96f:	90                   	nop

000000000000d970 <$s7ECScore8EntityIdVSLAASL2leoiySbx_xtFZTW>:
    d970:	55                   	push   %rbp
    d971:	48 89 e5             	mov    %rsp,%rbp
    d974:	48 8b 06             	mov    (%rsi),%rax
    d977:	48 3b 07             	cmp    (%rdi),%rax
    d97a:	0f 9d c0             	setge  %al
    d97d:	5d                   	pop    %rbp
    d97e:	c3                   	ret
    d97f:	90                   	nop

000000000000d980 <$s7ECScore8EntityIdVSLAASL2geoiySbx_xtFZTW>:
    d980:	55                   	push   %rbp
    d981:	48 89 e5             	mov    %rsp,%rbp
    d984:	48 8b 07             	mov    (%rdi),%rax
    d987:	48 3b 06             	cmp    (%rsi),%rax
    d98a:	0f 9d c0             	setge  %al
    d98d:	5d                   	pop    %rbp
    d98e:	c3                   	ret
    d98f:	90                   	nop

000000000000d990 <$s7ECScore8EntityIdVSLAASL1goiySbx_xtFZTW>:
    d990:	55                   	push   %rbp
    d991:	48 89 e5             	mov    %rsp,%rbp
    d994:	48 8b 06             	mov    (%rsi),%rax
    d997:	48 3b 07             	cmp    (%rdi),%rax
    d99a:	0f 9c c0             	setl   %al
    d99d:	5d                   	pop    %rbp
    d99e:	c3                   	ret
    d99f:	90                   	nop

000000000000d9a0 <$s7ECScore8EntityIdVSQAASQ2eeoiySbx_xtFZTW>:
    d9a0:	55                   	push   %rbp
    d9a1:	48 89 e5             	mov    %rsp,%rbp
    d9a4:	48 8b 07             	mov    (%rdi),%rax
    d9a7:	48 8b 4e 08          	mov    0x8(%rsi),%rcx
    d9ab:	48 33 06             	xor    (%rsi),%rax
    d9ae:	48 33 4f 08          	xor    0x8(%rdi),%rcx
    d9b2:	48 09 c1             	or     %rax,%rcx
    d9b5:	0f 94 c0             	sete   %al
    d9b8:	5d                   	pop    %rbp
    d9b9:	c3                   	ret
    d9ba:	66 0f 1f 44 00 00    	nopw   0x0(%rax,%rax,1)

000000000000d9c0 <$s7ECScore8EntityIdVs23CustomStringConvertibleAAsADP11descriptionSSvgTW>:
    d9c0:	55                   	push   %rbp
    d9c1:	48 89 e5             	mov    %rsp,%rbp
    d9c4:	49 8b 7d 00          	mov    0x0(%r13),%rdi
    d9c8:	49 8b 75 08          	mov    0x8(%r13),%rsi
    d9cc:	5d                   	pop    %rbp
    d9cd:	e9 ce 0b 00 00       	jmp    e5a0 <$s7ECScore8EntityIdV11descriptionSSvg>
    d9d2:	66 66 66 66 66 2e 0f 	data16 data16 data16 data16 cs nopw 0x0(%rax,%rax,1)
    d9d9:	1f 84 00 00 00 00 00 

000000000000d9e0 <$ss22_ContiguousArrayBufferV20_consumeAndCreateNew14bufferIsUnique15minimumCapacity13growForAppendAByxGSb_SiSbtF7ECScore8EntityIdV_Tg5>:
    d9e0:	55                   	push   %rbp
    d9e1:	48 89 e5             	mov    %rsp,%rbp
    d9e4:	4c 8d 05 dd 3c 03 00 	lea    0x33cdd(%rip),%r8        # 416c8 <$ss23_ContiguousArrayStorageCy7ECScore8EntityIdVGMD>
    d9eb:	5d                   	pop    %rbp
    d9ec:	e9 cf 05 00 00       	jmp    dfc0 <$ss22_ContiguousArrayBufferV20_consumeAndCreateNew14bufferIsUnique15minimumCapacity13growForAppendAByxGSb_SiSbtF7ECScore8EntityIdV_Tg5Tm>
    d9f1:	66 66 66 66 66 66 2e 	data16 data16 data16 data16 data16 cs nopw 0x0(%rax,%rax,1)
    d9f8:	0f 1f 84 00 00 00 00 
    d9ff:	00 

000000000000da00 <$ss22_ContiguousArrayBufferV20_consumeAndCreateNew14bufferIsUnique15minimumCapacity13growForAppendAByxGSb_SiSbtFs6UInt64V_Tg5Tm>:
    da00:	55                   	push   %rbp
    da01:	48 89 e5             	mov    %rsp,%rbp
    da04:	41 57                	push   %r15
    da06:	41 56                	push   %r14
    da08:	41 54                	push   %r12
    da0a:	53                   	push   %rbx
    da0b:	48 89 cb             	mov    %rcx,%rbx
    da0e:	49 89 f4             	mov    %rsi,%r12
    da11:	41 89 fe             	mov    %edi,%r14d
    da14:	f6 c2 01             	test   $0x1,%dl
    da17:	74 32                	je     da4b <$ss22_ContiguousArrayBufferV20_consumeAndCreateNew14bufferIsUnique15minimumCapacity13growForAppendAByxGSb_SiSbtFs6UInt64V_Tg5Tm+0x4b>
    da19:	48 8b 43 18          	mov    0x18(%rbx),%rax
    da1d:	48 89 c1             	mov    %rax,%rcx
    da20:	48 d1 e9             	shr    $1,%rcx
    da23:	4c 39 e1             	cmp    %r12,%rcx
    da26:	7d 20                	jge    da48 <$ss22_ContiguousArrayBufferV20_consumeAndCreateNew14bufferIsUnique15minimumCapacity13growForAppendAByxGSb_SiSbtFs6UInt64V_Tg5Tm+0x48>
    da28:	48 ba 00 00 00 00 00 	movabs $0x4000000000000000,%rdx
    da2f:	00 00 40 
    da32:	48 01 d1             	add    %rdx,%rcx
    da35:	0f 88 ca 00 00 00    	js     db05 <$ss22_ContiguousArrayBufferV20_consumeAndCreateNew14bufferIsUnique15minimumCapacity13growForAppendAByxGSb_SiSbtFs6UInt64V_Tg5Tm+0x105>
    da3b:	48 83 e0 fe          	and    $0xfffffffffffffffe,%rax
    da3f:	4c 39 e0             	cmp    %r12,%rax
    da42:	4c 0f 4f e0          	cmovg  %rax,%r12
    da46:	eb 03                	jmp    da4b <$ss22_ContiguousArrayBufferV20_consumeAndCreateNew14bufferIsUnique15minimumCapacity13growForAppendAByxGSb_SiSbtFs6UInt64V_Tg5Tm+0x4b>
    da48:	49 89 cc             	mov    %rcx,%r12
    da4b:	4c 8b 7b 10          	mov    0x10(%rbx),%r15
    da4f:	4d 39 fc             	cmp    %r15,%r12
    da52:	4d 0f 4e e7          	cmovle %r15,%r12
    da56:	4d 85 e4             	test   %r12,%r12
    da59:	74 4a                	je     daa5 <$ss22_ContiguousArrayBufferV20_consumeAndCreateNew14bufferIsUnique15minimumCapacity13growForAppendAByxGSb_SiSbtFs6UInt64V_Tg5Tm+0xa5>
    da5b:	4c 89 c7             	mov    %r8,%rdi
    da5e:	e8 cd e4 ff ff       	call   bf30 <__swift_instantiateConcreteTypeFromMangledName>
    da63:	4a 8d 34 e5 20 00 00 	lea    0x20(,%r12,8),%rsi
    da6a:	00 
    da6b:	ba 07 00 00 00       	mov    $0x7,%edx
    da70:	48 89 c7             	mov    %rax,%rdi
    da73:	e8 a8 cf ff ff       	call   aa20 <swift_allocObject@plt>
    da78:	49 89 c4             	mov    %rax,%r12
    da7b:	48 89 c7             	mov    %rax,%rdi
    da7e:	e8 cd d0 ff ff       	call   ab50 <malloc_usable_size@plt>
    da83:	48 8d 48 e0          	lea    -0x20(%rax),%rcx
    da87:	48 83 c0 e7          	add    $0xffffffffffffffe7,%rax
    da8b:	48 85 c9             	test   %rcx,%rcx
    da8e:	48 0f 49 c1          	cmovns %rcx,%rax
    da92:	48 c1 f8 03          	sar    $0x3,%rax
    da96:	48 01 c0             	add    %rax,%rax
    da99:	4d 89 7c 24 10       	mov    %r15,0x10(%r12)
    da9e:	49 89 44 24 18       	mov    %rax,0x18(%r12)
    daa3:	eb 07                	jmp    daac <$ss22_ContiguousArrayBufferV20_consumeAndCreateNew14bufferIsUnique15minimumCapacity13growForAppendAByxGSb_SiSbtFs6UInt64V_Tg5Tm+0xac>
    daa5:	4c 8b 25 64 34 03 00 	mov    0x33464(%rip),%r12        # 40f10 <_swiftEmptyArrayStorage>
    daac:	49 8d 7c 24 20       	lea    0x20(%r12),%rdi
    dab1:	48 8d 73 20          	lea    0x20(%rbx),%rsi
    dab5:	41 f6 c6 01          	test   $0x1,%r14b
    dab9:	74 2a                	je     dae5 <$ss22_ContiguousArrayBufferV20_consumeAndCreateNew14bufferIsUnique15minimumCapacity13growForAppendAByxGSb_SiSbtFs6UInt64V_Tg5Tm+0xe5>
    dabb:	4a 8d 04 fe          	lea    (%rsi,%r15,8),%rax
    dabf:	48 39 c7             	cmp    %rax,%rdi
    dac2:	0f 92 c0             	setb   %al
    dac5:	49 39 dc             	cmp    %rbx,%r12
    dac8:	0f 94 c1             	sete   %cl
    dacb:	84 c1                	test   %al,%cl
    dacd:	75 0c                	jne    dadb <$ss22_ContiguousArrayBufferV20_consumeAndCreateNew14bufferIsUnique15minimumCapacity13growForAppendAByxGSb_SiSbtFs6UInt64V_Tg5Tm+0xdb>
    dacf:	49 c1 e7 03          	shl    $0x3,%r15
    dad3:	4c 89 fa             	mov    %r15,%rdx
    dad6:	e8 85 d0 ff ff       	call   ab60 <memmove@plt>
    dadb:	48 c7 43 10 00 00 00 	movq   $0x0,0x10(%rbx)
    dae2:	00 
    dae3:	eb 0c                	jmp    daf1 <$ss22_ContiguousArrayBufferV20_consumeAndCreateNew14bufferIsUnique15minimumCapacity13growForAppendAByxGSb_SiSbtFs6UInt64V_Tg5Tm+0xf1>
    dae5:	49 c1 e7 03          	shl    $0x3,%r15
    dae9:	4c 89 fa             	mov    %r15,%rdx
    daec:	e8 7f d0 ff ff       	call   ab70 <memcpy@plt>
    daf1:	48 89 df             	mov    %rbx,%rdi
    daf4:	e8 47 ce ff ff       	call   a940 <swift_release@plt>
    daf9:	4c 89 e0             	mov    %r12,%rax
    dafc:	5b                   	pop    %rbx
    dafd:	41 5c                	pop    %r12
    daff:	41 5e                	pop    %r14
    db01:	41 5f                	pop    %r15
    db03:	5d                   	pop    %rbp
    db04:	c3                   	ret
    db05:	0f 0b                	ud2
    db07:	66 0f 1f 84 00 00 00 	nopw   0x0(%rax,%rax,1)
    db0e:	00 00 

000000000000db10 <$ss22_ContiguousArrayBufferV20_consumeAndCreateNew14bufferIsUnique15minimumCapacity13growForAppendAByxGSb_SiSbtF7ECScore7BlockIdV_Tg5>:
    db10:	55                   	push   %rbp
    db11:	48 89 e5             	mov    %rsp,%rbp
    db14:	41 57                	push   %r15
    db16:	41 56                	push   %r14
    db18:	41 54                	push   %r12
    db1a:	53                   	push   %rbx
    db1b:	48 89 cb             	mov    %rcx,%rbx
    db1e:	49 89 f4             	mov    %rsi,%r12
    db21:	41 89 fe             	mov    %edi,%r14d
    db24:	f6 c2 01             	test   $0x1,%dl
    db27:	74 32                	je     db5b <$ss22_ContiguousArrayBufferV20_consumeAndCreateNew14bufferIsUnique15minimumCapacity13growForAppendAByxGSb_SiSbtF7ECScore7BlockIdV_Tg5+0x4b>
    db29:	48 8b 43 18          	mov    0x18(%rbx),%rax
    db2d:	48 89 c1             	mov    %rax,%rcx
    db30:	48 d1 e9             	shr    $1,%rcx
    db33:	4c 39 e1             	cmp    %r12,%rcx
    db36:	7d 20                	jge    db58 <$ss22_ContiguousArrayBufferV20_consumeAndCreateNew14bufferIsUnique15minimumCapacity13growForAppendAByxGSb_SiSbtF7ECScore7BlockIdV_Tg5+0x48>
    db38:	48 ba 00 00 00 00 00 	movabs $0x4000000000000000,%rdx
    db3f:	00 00 40 
    db42:	48 01 d1             	add    %rdx,%rcx
    db45:	0f 88 cd 00 00 00    	js     dc18 <$ss22_ContiguousArrayBufferV20_consumeAndCreateNew14bufferIsUnique15minimumCapacity13growForAppendAByxGSb_SiSbtF7ECScore7BlockIdV_Tg5+0x108>
    db4b:	48 83 e0 fe          	and    $0xfffffffffffffffe,%rax
    db4f:	4c 39 e0             	cmp    %r12,%rax
    db52:	4c 0f 4f e0          	cmovg  %rax,%r12
    db56:	eb 03                	jmp    db5b <$ss22_ContiguousArrayBufferV20_consumeAndCreateNew14bufferIsUnique15minimumCapacity13growForAppendAByxGSb_SiSbtF7ECScore7BlockIdV_Tg5+0x4b>
    db58:	49 89 cc             	mov    %rcx,%r12
    db5b:	4c 8b 7b 10          	mov    0x10(%rbx),%r15
    db5f:	4d 39 fc             	cmp    %r15,%r12
    db62:	4d 0f 4e e7          	cmovle %r15,%r12
    db66:	4d 85 e4             	test   %r12,%r12
    db69:	74 51                	je     dbbc <$ss22_ContiguousArrayBufferV20_consumeAndCreateNew14bufferIsUnique15minimumCapacity13growForAppendAByxGSb_SiSbtF7ECScore7BlockIdV_Tg5+0xac>
    db6b:	48 8d 3d 06 3b 03 00 	lea    0x33b06(%rip),%rdi        # 41678 <$ss23_ContiguousArrayStorageCy7ECScore7BlockIdVGMD>
    db72:	e8 b9 e3 ff ff       	call   bf30 <__swift_instantiateConcreteTypeFromMangledName>
    db77:	49 c1 e4 04          	shl    $0x4,%r12
    db7b:	49 83 c4 20          	add    $0x20,%r12
    db7f:	ba 07 00 00 00       	mov    $0x7,%edx
    db84:	48 89 c7             	mov    %rax,%rdi
    db87:	4c 89 e6             	mov    %r12,%rsi
    db8a:	e8 91 ce ff ff       	call   aa20 <swift_allocObject@plt>
    db8f:	49 89 c4             	mov    %rax,%r12
    db92:	48 89 c7             	mov    %rax,%rdi
    db95:	e8 b6 cf ff ff       	call   ab50 <malloc_usable_size@plt>
    db9a:	48 8d 48 e0          	lea    -0x20(%rax),%rcx
    db9e:	48 83 c0 ef          	add    $0xffffffffffffffef,%rax
    dba2:	48 85 c9             	test   %rcx,%rcx
    dba5:	48 0f 49 c1          	cmovns %rcx,%rax
    dba9:	48 c1 f8 04          	sar    $0x4,%rax
    dbad:	48 01 c0             	add    %rax,%rax
    dbb0:	4d 89 7c 24 10       	mov    %r15,0x10(%r12)
    dbb5:	49 89 44 24 18       	mov    %rax,0x18(%r12)
    dbba:	eb 07                	jmp    dbc3 <$ss22_ContiguousArrayBufferV20_consumeAndCreateNew14bufferIsUnique15minimumCapacity13growForAppendAByxGSb_SiSbtF7ECScore7BlockIdV_Tg5+0xb3>
    dbbc:	4c 8b 25 4d 33 03 00 	mov    0x3334d(%rip),%r12        # 40f10 <_swiftEmptyArrayStorage>
    dbc3:	49 8d 7c 24 20       	lea    0x20(%r12),%rdi
    dbc8:	48 8d 73 20          	lea    0x20(%rbx),%rsi
    dbcc:	49 c1 e7 04          	shl    $0x4,%r15
    dbd0:	41 f6 c6 01          	test   $0x1,%r14b
    dbd4:	74 26                	je     dbfc <$ss22_ContiguousArrayBufferV20_consumeAndCreateNew14bufferIsUnique15minimumCapacity13growForAppendAByxGSb_SiSbtF7ECScore7BlockIdV_Tg5+0xec>
    dbd6:	4a 8d 04 3e          	lea    (%rsi,%r15,1),%rax
    dbda:	48 39 c7             	cmp    %rax,%rdi
    dbdd:	0f 92 c0             	setb   %al
    dbe0:	49 39 dc             	cmp    %rbx,%r12
    dbe3:	0f 94 c1             	sete   %cl
    dbe6:	84 c1                	test   %al,%cl
    dbe8:	75 08                	jne    dbf2 <$ss22_ContiguousArrayBufferV20_consumeAndCreateNew14bufferIsUnique15minimumCapacity13growForAppendAByxGSb_SiSbtF7ECScore7BlockIdV_Tg5+0xe2>
    dbea:	4c 89 fa             	mov    %r15,%rdx
    dbed:	e8 6e cf ff ff       	call   ab60 <memmove@plt>
    dbf2:	48 c7 43 10 00 00 00 	movq   $0x0,0x10(%rbx)
    dbf9:	00 
    dbfa:	eb 08                	jmp    dc04 <$ss22_ContiguousArrayBufferV20_consumeAndCreateNew14bufferIsUnique15minimumCapacity13growForAppendAByxGSb_SiSbtF7ECScore7BlockIdV_Tg5+0xf4>
    dbfc:	4c 89 fa             	mov    %r15,%rdx
    dbff:	e8 6c cf ff ff       	call   ab70 <memcpy@plt>
    dc04:	48 89 df             	mov    %rbx,%rdi
    dc07:	e8 34 cd ff ff       	call   a940 <swift_release@plt>
    dc0c:	4c 89 e0             	mov    %r12,%rax
    dc0f:	5b                   	pop    %rbx
    dc10:	41 5c                	pop    %r12
    dc12:	41 5e                	pop    %r14
    dc14:	41 5f                	pop    %r15
    dc16:	5d                   	pop    %rbp
    dc17:	c3                   	ret
    dc18:	0f 0b                	ud2
    dc1a:	66 0f 1f 44 00 00    	nopw   0x0(%rax,%rax,1)

000000000000dc20 <$ss22_ContiguousArrayBufferV20_consumeAndCreateNew14bufferIsUnique15minimumCapacity13growForAppendAByxGSb_SiSbtF7ECScore14SparseSetEntryV_Tg5>:
    dc20:	55                   	push   %rbp
    dc21:	48 89 e5             	mov    %rsp,%rbp
    dc24:	41 57                	push   %r15
    dc26:	41 56                	push   %r14
    dc28:	41 54                	push   %r12
    dc2a:	53                   	push   %rbx
    dc2b:	48 89 cb             	mov    %rcx,%rbx
    dc2e:	49 89 f4             	mov    %rsi,%r12
    dc31:	41 89 fe             	mov    %edi,%r14d
    dc34:	f6 c2 01             	test   $0x1,%dl
    dc37:	74 32                	je     dc6b <$ss22_ContiguousArrayBufferV20_consumeAndCreateNew14bufferIsUnique15minimumCapacity13growForAppendAByxGSb_SiSbtF7ECScore14SparseSetEntryV_Tg5+0x4b>
    dc39:	48 8b 43 18          	mov    0x18(%rbx),%rax
    dc3d:	48 89 c1             	mov    %rax,%rcx
    dc40:	48 d1 e9             	shr    $1,%rcx
    dc43:	4c 39 e1             	cmp    %r12,%rcx
    dc46:	7d 20                	jge    dc68 <$ss22_ContiguousArrayBufferV20_consumeAndCreateNew14bufferIsUnique15minimumCapacity13growForAppendAByxGSb_SiSbtF7ECScore14SparseSetEntryV_Tg5+0x48>
    dc48:	48 ba 00 00 00 00 00 	movabs $0x4000000000000000,%rdx
    dc4f:	00 00 40 
    dc52:	48 01 d1             	add    %rdx,%rcx
    dc55:	0f 88 c9 00 00 00    	js     dd24 <$ss22_ContiguousArrayBufferV20_consumeAndCreateNew14bufferIsUnique15minimumCapacity13growForAppendAByxGSb_SiSbtF7ECScore14SparseSetEntryV_Tg5+0x104>
    dc5b:	48 83 e0 fe          	and    $0xfffffffffffffffe,%rax
    dc5f:	4c 39 e0             	cmp    %r12,%rax
    dc62:	4c 0f 4f e0          	cmovg  %rax,%r12
    dc66:	eb 03                	jmp    dc6b <$ss22_ContiguousArrayBufferV20_consumeAndCreateNew14bufferIsUnique15minimumCapacity13growForAppendAByxGSb_SiSbtF7ECScore14SparseSetEntryV_Tg5+0x4b>
    dc68:	49 89 cc             	mov    %rcx,%r12
    dc6b:	4c 8b 7b 10          	mov    0x10(%rbx),%r15
    dc6f:	4d 39 fc             	cmp    %r15,%r12
    dc72:	4d 0f 4e e7          	cmovle %r15,%r12
    dc76:	4d 85 e4             	test   %r12,%r12
    dc79:	74 4b                	je     dcc6 <$ss22_ContiguousArrayBufferV20_consumeAndCreateNew14bufferIsUnique15minimumCapacity13growForAppendAByxGSb_SiSbtF7ECScore14SparseSetEntryV_Tg5+0xa6>
    dc7b:	48 8d 3d fe 39 03 00 	lea    0x339fe(%rip),%rdi        # 41680 <$ss23_ContiguousArrayStorageCy7ECScore14SparseSetEntryVGMD>
    dc82:	e8 a9 e2 ff ff       	call   bf30 <__swift_instantiateConcreteTypeFromMangledName>
    dc87:	4a 8d 34 65 20 00 00 	lea    0x20(,%r12,2),%rsi
    dc8e:	00 
    dc8f:	ba 07 00 00 00       	mov    $0x7,%edx
    dc94:	48 89 c7             	mov    %rax,%rdi
    dc97:	e8 84 cd ff ff       	call   aa20 <swift_allocObject@plt>
    dc9c:	49 89 c4             	mov    %rax,%r12
    dc9f:	48 89 c7             	mov    %rax,%rdi
    dca2:	e8 a9 ce ff ff       	call   ab50 <malloc_usable_size@plt>
    dca7:	48 8d 48 e0          	lea    -0x20(%rax),%rcx
    dcab:	48 c1 e9 3f          	shr    $0x3f,%rcx
    dcaf:	48 01 c8             	add    %rcx,%rax
    dcb2:	48 83 c0 e0          	add    $0xffffffffffffffe0,%rax
    dcb6:	48 83 e0 fe          	and    $0xfffffffffffffffe,%rax
    dcba:	4d 89 7c 24 10       	mov    %r15,0x10(%r12)
    dcbf:	49 89 44 24 18       	mov    %rax,0x18(%r12)
    dcc4:	eb 07                	jmp    dccd <$ss22_ContiguousArrayBufferV20_consumeAndCreateNew14bufferIsUnique15minimumCapacity13growForAppendAByxGSb_SiSbtF7ECScore14SparseSetEntryV_Tg5+0xad>
    dcc6:	4c 8b 25 43 32 03 00 	mov    0x33243(%rip),%r12        # 40f10 <_swiftEmptyArrayStorage>
    dccd:	49 8d 7c 24 20       	lea    0x20(%r12),%rdi
    dcd2:	48 8d 73 20          	lea    0x20(%rbx),%rsi
    dcd6:	41 f6 c6 01          	test   $0x1,%r14b
    dcda:	74 29                	je     dd05 <$ss22_ContiguousArrayBufferV20_consumeAndCreateNew14bufferIsUnique15minimumCapacity13growForAppendAByxGSb_SiSbtF7ECScore14SparseSetEntryV_Tg5+0xe5>
    dcdc:	4a 8d 04 7e          	lea    (%rsi,%r15,2),%rax
    dce0:	48 39 c7             	cmp    %rax,%rdi
    dce3:	0f 92 c0             	setb   %al
    dce6:	49 39 dc             	cmp    %rbx,%r12
    dce9:	0f 94 c1             	sete   %cl
    dcec:	84 c1                	test   %al,%cl
    dcee:	75 0b                	jne    dcfb <$ss22_ContiguousArrayBufferV20_consumeAndCreateNew14bufferIsUnique15minimumCapacity13growForAppendAByxGSb_SiSbtF7ECScore14SparseSetEntryV_Tg5+0xdb>
    dcf0:	4d 01 ff             	add    %r15,%r15
    dcf3:	4c 89 fa             	mov    %r15,%rdx
    dcf6:	e8 65 ce ff ff       	call   ab60 <memmove@plt>
    dcfb:	48 c7 43 10 00 00 00 	movq   $0x0,0x10(%rbx)
    dd02:	00 
    dd03:	eb 0b                	jmp    dd10 <$ss22_ContiguousArrayBufferV20_consumeAndCreateNew14bufferIsUnique15minimumCapacity13growForAppendAByxGSb_SiSbtF7ECScore14SparseSetEntryV_Tg5+0xf0>
    dd05:	4d 01 ff             	add    %r15,%r15
    dd08:	4c 89 fa             	mov    %r15,%rdx
    dd0b:	e8 60 ce ff ff       	call   ab70 <memcpy@plt>
    dd10:	48 89 df             	mov    %rbx,%rdi
    dd13:	e8 28 cc ff ff       	call   a940 <swift_release@plt>
    dd18:	4c 89 e0             	mov    %r12,%rax
    dd1b:	5b                   	pop    %rbx
    dd1c:	41 5c                	pop    %r12
    dd1e:	41 5e                	pop    %r14
    dd20:	41 5f                	pop    %r15
    dd22:	5d                   	pop    %rbp
    dd23:	c3                   	ret
    dd24:	0f 0b                	ud2
    dd26:	66 2e 0f 1f 84 00 00 	cs nopw 0x0(%rax,%rax,1)
    dd2d:	00 00 00 

000000000000dd30 <$ss22_ContiguousArrayBufferV20_consumeAndCreateNew14bufferIsUnique15minimumCapacity13growForAppendAByxGSb_SiSbtF7ECScore6Page64V_Tg5>:
    dd30:	55                   	push   %rbp
    dd31:	48 89 e5             	mov    %rsp,%rbp
    dd34:	41 57                	push   %r15
    dd36:	41 56                	push   %r14
    dd38:	41 54                	push   %r12
    dd3a:	53                   	push   %rbx
    dd3b:	48 89 cb             	mov    %rcx,%rbx
    dd3e:	49 89 f4             	mov    %rsi,%r12
    dd41:	41 89 fe             	mov    %edi,%r14d
    dd44:	f6 c2 01             	test   $0x1,%dl
    dd47:	74 32                	je     dd7b <$ss22_ContiguousArrayBufferV20_consumeAndCreateNew14bufferIsUnique15minimumCapacity13growForAppendAByxGSb_SiSbtF7ECScore6Page64V_Tg5+0x4b>
    dd49:	48 8b 43 18          	mov    0x18(%rbx),%rax
    dd4d:	48 89 c1             	mov    %rax,%rcx
    dd50:	48 d1 e9             	shr    $1,%rcx
    dd53:	4c 39 e1             	cmp    %r12,%rcx
    dd56:	7d 20                	jge    dd78 <$ss22_ContiguousArrayBufferV20_consumeAndCreateNew14bufferIsUnique15minimumCapacity13growForAppendAByxGSb_SiSbtF7ECScore6Page64V_Tg5+0x48>
    dd58:	48 ba 00 00 00 00 00 	movabs $0x4000000000000000,%rdx
    dd5f:	00 00 40 
    dd62:	48 01 d1             	add    %rdx,%rcx
    dd65:	0f 88 e6 00 00 00    	js     de51 <$ss22_ContiguousArrayBufferV20_consumeAndCreateNew14bufferIsUnique15minimumCapacity13growForAppendAByxGSb_SiSbtF7ECScore6Page64V_Tg5+0x121>
    dd6b:	48 83 e0 fe          	and    $0xfffffffffffffffe,%rax
    dd6f:	4c 39 e0             	cmp    %r12,%rax
    dd72:	4c 0f 4f e0          	cmovg  %rax,%r12
    dd76:	eb 03                	jmp    dd7b <$ss22_ContiguousArrayBufferV20_consumeAndCreateNew14bufferIsUnique15minimumCapacity13growForAppendAByxGSb_SiSbtF7ECScore6Page64V_Tg5+0x4b>
    dd78:	49 89 cc             	mov    %rcx,%r12
    dd7b:	4c 8b 7b 10          	mov    0x10(%rbx),%r15
    dd7f:	4d 39 fc             	cmp    %r15,%r12
    dd82:	4d 0f 4e e7          	cmovle %r15,%r12
    dd86:	4d 85 e4             	test   %r12,%r12
    dd89:	74 5e                	je     dde9 <$ss22_ContiguousArrayBufferV20_consumeAndCreateNew14bufferIsUnique15minimumCapacity13growForAppendAByxGSb_SiSbtF7ECScore6Page64V_Tg5+0xb9>
    dd8b:	48 8d 3d f6 38 03 00 	lea    0x338f6(%rip),%rdi        # 41688 <$ss23_ContiguousArrayStorageCy7ECScore6Page64VGMD>
    dd92:	e8 99 e1 ff ff       	call   bf30 <__swift_instantiateConcreteTypeFromMangledName>
    dd97:	4b 8d 0c 64          	lea    (%r12,%r12,2),%rcx
    dd9b:	48 8d 34 cd 20 00 00 	lea    0x20(,%rcx,8),%rsi
    dda2:	00 
    dda3:	ba 07 00 00 00       	mov    $0x7,%edx
    dda8:	48 89 c7             	mov    %rax,%rdi
    ddab:	e8 70 cc ff ff       	call   aa20 <swift_allocObject@plt>
    ddb0:	49 89 c4             	mov    %rax,%r12
    ddb3:	48 89 c7             	mov    %rax,%rdi
    ddb6:	e8 95 cd ff ff       	call   ab50 <malloc_usable_size@plt>
    ddbb:	48 83 c0 e0          	add    $0xffffffffffffffe0,%rax
    ddbf:	48 b9 ab aa aa aa aa 	movabs $0x2aaaaaaaaaaaaaab,%rcx
    ddc6:	aa aa 2a 
    ddc9:	48 f7 e9             	imul   %rcx
    ddcc:	48 89 d0             	mov    %rdx,%rax
    ddcf:	48 c1 e8 3f          	shr    $0x3f,%rax
    ddd3:	48 c1 fa 02          	sar    $0x2,%rdx
    ddd7:	48 01 c2             	add    %rax,%rdx
    ddda:	48 01 d2             	add    %rdx,%rdx
    dddd:	4d 89 7c 24 10       	mov    %r15,0x10(%r12)
    dde2:	49 89 54 24 18       	mov    %rdx,0x18(%r12)
    dde7:	eb 07                	jmp    ddf0 <$ss22_ContiguousArrayBufferV20_consumeAndCreateNew14bufferIsUnique15minimumCapacity13growForAppendAByxGSb_SiSbtF7ECScore6Page64V_Tg5+0xc0>
    dde9:	4c 8b 25 20 31 03 00 	mov    0x33120(%rip),%r12        # 40f10 <_swiftEmptyArrayStorage>
    ddf0:	49 8d 7c 24 20       	lea    0x20(%r12),%rdi
    ddf5:	48 8d 73 20          	lea    0x20(%rbx),%rsi
    ddf9:	41 f6 c6 01          	test   $0x1,%r14b
    ddfd:	74 2f                	je     de2e <$ss22_ContiguousArrayBufferV20_consumeAndCreateNew14bufferIsUnique15minimumCapacity13growForAppendAByxGSb_SiSbtF7ECScore6Page64V_Tg5+0xfe>
    ddff:	4b 8d 04 7f          	lea    (%r15,%r15,2),%rax
    de03:	48 8d 04 c6          	lea    (%rsi,%rax,8),%rax
    de07:	48 39 c7             	cmp    %rax,%rdi
    de0a:	0f 92 c0             	setb   %al
    de0d:	49 39 dc             	cmp    %rbx,%r12
    de10:	0f 94 c1             	sete   %cl
    de13:	84 c1                	test   %al,%cl
    de15:	75 0d                	jne    de24 <$ss22_ContiguousArrayBufferV20_consumeAndCreateNew14bufferIsUnique15minimumCapacity13growForAppendAByxGSb_SiSbtF7ECScore6Page64V_Tg5+0xf4>
    de17:	49 c1 e7 03          	shl    $0x3,%r15
    de1b:	4b 8d 14 7f          	lea    (%r15,%r15,2),%rdx
    de1f:	e8 3c cd ff ff       	call   ab60 <memmove@plt>
    de24:	48 c7 43 10 00 00 00 	movq   $0x0,0x10(%rbx)
    de2b:	00 
    de2c:	eb 0f                	jmp    de3d <$ss22_ContiguousArrayBufferV20_consumeAndCreateNew14bufferIsUnique15minimumCapacity13growForAppendAByxGSb_SiSbtF7ECScore6Page64V_Tg5+0x10d>
    de2e:	48 8d 0d 8b 18 03 00 	lea    0x3188b(%rip),%rcx        # 3f6c0 <$s7ECScore6Page64VN>
    de35:	4c 89 fa             	mov    %r15,%rdx
    de38:	e8 43 cd ff ff       	call   ab80 <swift_arrayInitWithCopy@plt>
    de3d:	48 89 df             	mov    %rbx,%rdi
    de40:	e8 fb ca ff ff       	call   a940 <swift_release@plt>
    de45:	4c 89 e0             	mov    %r12,%rax
    de48:	5b                   	pop    %rbx
    de49:	41 5c                	pop    %r12
    de4b:	41 5e                	pop    %r14
    de4d:	41 5f                	pop    %r15
    de4f:	5d                   	pop    %rbp
    de50:	c3                   	ret
    de51:	0f 0b                	ud2
    de53:	66 66 66 66 2e 0f 1f 	data16 data16 data16 cs nopw 0x0(%rax,%rax,1)
    de5a:	84 00 00 00 00 00 

000000000000de60 <$ss22_ContiguousArrayBufferV20_consumeAndCreateNew14bufferIsUnique15minimumCapacity13growForAppendAByxGSb_SiSbtF7ECScore18AnyPlatformStorage_pSg_Tg5>:
    de60:	55                   	push   %rbp
    de61:	48 89 e5             	mov    %rsp,%rbp
    de64:	41 57                	push   %r15
    de66:	41 56                	push   %r14
    de68:	41 55                	push   %r13
    de6a:	41 54                	push   %r12
    de6c:	53                   	push   %rbx
    de6d:	50                   	push   %rax
    de6e:	48 89 cb             	mov    %rcx,%rbx
    de71:	49 89 f4             	mov    %rsi,%r12
    de74:	f6 c2 01             	test   $0x1,%dl
    de77:	74 32                	je     deab <$ss22_ContiguousArrayBufferV20_consumeAndCreateNew14bufferIsUnique15minimumCapacity13growForAppendAByxGSb_SiSbtF7ECScore18AnyPlatformStorage_pSg_Tg5+0x4b>
    de79:	48 8b 43 18          	mov    0x18(%rbx),%rax
    de7d:	48 89 c1             	mov    %rax,%rcx
    de80:	48 d1 e9             	shr    $1,%rcx
    de83:	4c 39 e1             	cmp    %r12,%rcx
    de86:	7d 20                	jge    dea8 <$ss22_ContiguousArrayBufferV20_consumeAndCreateNew14bufferIsUnique15minimumCapacity13growForAppendAByxGSb_SiSbtF7ECScore18AnyPlatformStorage_pSg_Tg5+0x48>
    de88:	48 ba 00 00 00 00 00 	movabs $0x4000000000000000,%rdx
    de8f:	00 00 40 
    de92:	48 01 d1             	add    %rdx,%rcx
    de95:	0f 88 0d 01 00 00    	js     dfa8 <$ss22_ContiguousArrayBufferV20_consumeAndCreateNew14bufferIsUnique15minimumCapacity13growForAppendAByxGSb_SiSbtF7ECScore18AnyPlatformStorage_pSg_Tg5+0x148>
    de9b:	48 83 e0 fe          	and    $0xfffffffffffffffe,%rax
    de9f:	4c 39 e0             	cmp    %r12,%rax
    dea2:	4c 0f 4f e0          	cmovg  %rax,%r12
    dea6:	eb 03                	jmp    deab <$ss22_ContiguousArrayBufferV20_consumeAndCreateNew14bufferIsUnique15minimumCapacity13growForAppendAByxGSb_SiSbtF7ECScore18AnyPlatformStorage_pSg_Tg5+0x4b>
    dea8:	49 89 cc             	mov    %rcx,%r12
    deab:	4c 8b 7b 10          	mov    0x10(%rbx),%r15
    deaf:	4d 39 fc             	cmp    %r15,%r12
    deb2:	4d 0f 4e e7          	cmovle %r15,%r12
    deb6:	4d 85 e4             	test   %r12,%r12
    deb9:	74 64                	je     df1f <$ss22_ContiguousArrayBufferV20_consumeAndCreateNew14bufferIsUnique15minimumCapacity13growForAppendAByxGSb_SiSbtF7ECScore18AnyPlatformStorage_pSg_Tg5+0xbf>
    debb:	41 89 fe             	mov    %edi,%r14d
    debe:	48 8d 3d 8b 36 03 00 	lea    0x3368b(%rip),%rdi        # 41550 <$ss23_ContiguousArrayStorageCy7ECScore011AnyPlatformC0_pSgGMD>
    dec5:	e8 66 e0 ff ff       	call   bf30 <__swift_instantiateConcreteTypeFromMangledName>
    deca:	4b 8d 0c a4          	lea    (%r12,%r12,4),%rcx
    dece:	48 8d 34 cd 20 00 00 	lea    0x20(,%rcx,8),%rsi
    ded5:	00 
    ded6:	ba 07 00 00 00       	mov    $0x7,%edx
    dedb:	48 89 c7             	mov    %rax,%rdi
    dede:	e8 3d cb ff ff       	call   aa20 <swift_allocObject@plt>
    dee3:	49 89 c4             	mov    %rax,%r12
    dee6:	48 89 c7             	mov    %rax,%rdi
    dee9:	e8 62 cc ff ff       	call   ab50 <malloc_usable_size@plt>
    deee:	44 89 f7             	mov    %r14d,%edi
    def1:	48 83 c0 e0          	add    $0xffffffffffffffe0,%rax
    def5:	48 b9 67 66 66 66 66 	movabs $0x6666666666666667,%rcx
    defc:	66 66 66 
    deff:	48 f7 e9             	imul   %rcx
    df02:	48 89 d0             	mov    %rdx,%rax
    df05:	48 c1 e8 3f          	shr    $0x3f,%rax
    df09:	48 c1 fa 04          	sar    $0x4,%rdx
    df0d:	48 01 c2             	add    %rax,%rdx
    df10:	48 01 d2             	add    %rdx,%rdx
    df13:	4d 89 7c 24 10       	mov    %r15,0x10(%r12)
    df18:	49 89 54 24 18       	mov    %rdx,0x18(%r12)
    df1d:	eb 07                	jmp    df26 <$ss22_ContiguousArrayBufferV20_consumeAndCreateNew14bufferIsUnique15minimumCapacity13growForAppendAByxGSb_SiSbtF7ECScore18AnyPlatformStorage_pSg_Tg5+0xc6>
    df1f:	4c 8b 25 ea 2f 03 00 	mov    0x32fea(%rip),%r12        # 40f10 <_swiftEmptyArrayStorage>
    df26:	4d 8d 74 24 20       	lea    0x20(%r12),%r14
    df2b:	4c 8d 6b 20          	lea    0x20(%rbx),%r13
    df2f:	40 f6 c7 01          	test   $0x1,%dil
    df33:	74 3c                	je     df71 <$ss22_ContiguousArrayBufferV20_consumeAndCreateNew14bufferIsUnique15minimumCapacity13growForAppendAByxGSb_SiSbtF7ECScore18AnyPlatformStorage_pSg_Tg5+0x111>
    df35:	4b 8d 04 bf          	lea    (%r15,%r15,4),%rax
    df39:	48 8d 04 c5 00 00 00 	lea    0x0(,%rax,8),%rax
    df40:	00 
    df41:	4c 01 e8             	add    %r13,%rax
    df44:	49 39 c6             	cmp    %rax,%r14
    df47:	0f 92 c0             	setb   %al
    df4a:	49 39 dc             	cmp    %rbx,%r12
    df4d:	0f 94 c1             	sete   %cl
    df50:	84 c1                	test   %al,%cl
    df52:	75 13                	jne    df67 <$ss22_ContiguousArrayBufferV20_consumeAndCreateNew14bufferIsUnique15minimumCapacity13growForAppendAByxGSb_SiSbtF7ECScore18AnyPlatformStorage_pSg_Tg5+0x107>
    df54:	49 c1 e7 03          	shl    $0x3,%r15
    df58:	4b 8d 14 bf          	lea    (%r15,%r15,4),%rdx
    df5c:	4c 89 f7             	mov    %r14,%rdi
    df5f:	4c 89 ee             	mov    %r13,%rsi
    df62:	e8 f9 cb ff ff       	call   ab60 <memmove@plt>
    df67:	48 c7 43 10 00 00 00 	movq   $0x0,0x10(%rbx)
    df6e:	00 
    df6f:	eb 1d                	jmp    df8e <$ss22_ContiguousArrayBufferV20_consumeAndCreateNew14bufferIsUnique15minimumCapacity13growForAppendAByxGSb_SiSbtF7ECScore18AnyPlatformStorage_pSg_Tg5+0x12e>
    df71:	48 8d 3d e0 35 03 00 	lea    0x335e0(%rip),%rdi        # 41558 <$s7ECScore18AnyPlatformStorage_pSgMD>
    df78:	e8 b3 df ff ff       	call   bf30 <__swift_instantiateConcreteTypeFromMangledName>
    df7d:	4c 89 f7             	mov    %r14,%rdi
    df80:	4c 89 ee             	mov    %r13,%rsi
    df83:	4c 89 fa             	mov    %r15,%rdx
    df86:	48 89 c1             	mov    %rax,%rcx
    df89:	e8 f2 cb ff ff       	call   ab80 <swift_arrayInitWithCopy@plt>
    df8e:	48 89 df             	mov    %rbx,%rdi
    df91:	e8 aa c9 ff ff       	call   a940 <swift_release@plt>
    df96:	4c 89 e0             	mov    %r12,%rax
    df99:	48 83 c4 08          	add    $0x8,%rsp
    df9d:	5b                   	pop    %rbx
    df9e:	41 5c                	pop    %r12
    dfa0:	41 5d                	pop    %r13
    dfa2:	41 5e                	pop    %r14
    dfa4:	41 5f                	pop    %r15
    dfa6:	5d                   	pop    %rbp
    dfa7:	c3                   	ret
    dfa8:	0f 0b                	ud2
    dfaa:	66 0f 1f 44 00 00    	nopw   0x0(%rax,%rax,1)

000000000000dfb0 <$ss22_ContiguousArrayBufferV20_consumeAndCreateNew14bufferIsUnique15minimumCapacity13growForAppendAByxGSb_SiSbtF7ECScore8ViewPlanV_Tg5>:
    dfb0:	55                   	push   %rbp
    dfb1:	48 89 e5             	mov    %rsp,%rbp
